

Microchip Technology PIC LITE Macro Assembler V1.41 build -162212810 
                                                                                               Sun Mar  5 13:56:03 2017

Microchip Technology Omniscient Code Generator v1.41 (Free mode) build 201701250102
     1                           	processor	12F683
     2                           	opt	pw 120
     3                           	opt	lm
     4                           	psect	cinit,global,class=CODE,merge=1,delta=2
     5                           	psect	cstackCOMMON,global,class=COMMON,space=1,delta=1
     6                           	psect	cstackBANK0,global,class=BANK0,space=1,delta=1
     7                           	psect	maintext,global,class=CODE,split=1,delta=2
     8                           	psect	text1,local,class=CODE,merge=1,delta=2
     9                           	psect	text2,local,class=CODE,merge=1,delta=2,group=2
    10                           	psect	text3,local,class=CODE,merge=1,delta=2,group=2
    11                           	psect	text4,local,class=CODE,merge=1,delta=2,group=2
    12                           	psect	text5,local,class=CODE,merge=1,delta=2,group=2
    13                           	psect	text6,local,class=CODE,merge=1,delta=2,group=2
    14                           	psect	text7,local,class=CODE,merge=1,delta=2,group=2
    15                           	psect	text8,local,class=CODE,merge=1,delta=2,group=2
    16                           	psect	text9,local,class=CODE,merge=1,delta=2
    17                           	dabs	1,0x7E,2
    18  0000                     
    19                           ; Version 1.41
    20                           ; Generated 25/01/2017 GMT
    21                           ; 
    22                           ; Copyright © 2017, Microchip Technology Inc. and its subsidiaries ("Microchip")
    23                           ; All rights reserved.
    24                           ; 
    25                           ; This software is developed by Microchip Technology Inc. and its subsidiaries ("Microch
      +                          ip").
    26                           ; 
    27                           ; Redistribution and use in source and binary forms, with or without modification, are
    28                           ; permitted provided that the following conditions are met:
    29                           ; 
    30                           ;     1. Redistributions of source code must retain the above copyright notice, this lis
      +                          t of
    31                           ;        conditions and the following disclaimer.
    32                           ; 
    33                           ;     2. Redistributions in binary form must reproduce the above copyright notice, this 
      +                          list
    34                           ;        of conditions and the following disclaimer in the documentation and/or other
    35                           ;        materials provided with the distribution.
    36                           ; 
    37                           ;     3. Microchip's name may not be used to endorse or promote products derived from th
      +                          is
    38                           ;        software without specific prior written permission.
    39                           ; 
    40                           ; THIS SOFTWARE IS PROVIDED BY MICROCHIP "AS IS" AND ANY EXPRESS OR IMPLIED WARRANTIES,
    41                           ; INCLUDING, BUT NOT LIMITED TO, THE IMPLIED WARRANTIES OF MERCHANTABILITY AND FITNESS F
      +                          OR
    42                           ; PURPOSE ARE DISCLAIMED.  IN NO EVENT SHALL MICROCHIP BE LIABLE FOR ANY DIRECT, INDIREC
      +                          T,
    43                           ; INCIDENTAL, SPECIAL, EXEMPLARY, OR CONSEQUENTIAL DAMAGES (INCLUDING BUT NOT LIMITED TO
    44                           ; PROCUREMENT OF SUBSTITUTE GOODS OR SERVICES; LOSS OF USE, DATA OR PROFITS; OR BUSINESS
    45                           ; INTERRUPTION) HOWSOEVER CAUSED AND ON ANY THEORY OF LIABILITY, WHETHER IN CONTRACT, ST
      +                          RICT
    46                           ; LIABILITY, OR TORT (INCLUDING NEGLIGENCE OR OTHERWISE) ARISING IN ANY WAY OUT OF THE U
      +                          SE OF
    47                           ; THIS SOFTWARE, EVEN IF ADVISED OF THE POSSIBILITY OF SUCH DAMAGE.
    48                           ; 
    49                           ; 
    50                           ; Code-generator required, PIC12F683 Definitions
    51                           ; 
    52                           ; SFR Addresses
    53  0000                     	;# 
    54  0001                     	;# 
    55  0002                     	;# 
    56  0003                     	;# 
    57  0004                     	;# 
    58  0005                     	;# 
    59  000A                     	;# 
    60  000B                     	;# 
    61  000C                     	;# 
    62  000E                     	;# 
    63  000E                     	;# 
    64  000F                     	;# 
    65  0010                     	;# 
    66  0011                     	;# 
    67  0012                     	;# 
    68  0013                     	;# 
    69  0013                     	;# 
    70  0014                     	;# 
    71  0015                     	;# 
    72  0018                     	;# 
    73  0019                     	;# 
    74  001A                     	;# 
    75  001E                     	;# 
    76  001F                     	;# 
    77  0081                     	;# 
    78  0085                     	;# 
    79  008C                     	;# 
    80  008E                     	;# 
    81  008F                     	;# 
    82  0090                     	;# 
    83  0092                     	;# 
    84  0095                     	;# 
    85  0095                     	;# 
    86  0096                     	;# 
    87  0096                     	;# 
    88  0099                     	;# 
    89  009A                     	;# 
    90  009A                     	;# 
    91  009B                     	;# 
    92  009C                     	;# 
    93  009D                     	;# 
    94  009E                     	;# 
    95  009F                     	;# 
    96  0015                     _CCP1CON	set	21
    97  0013                     _CCPR1L	set	19
    98  0012                     _T2CON	set	18
    99  0019                     _CMCON0	set	25
   100  001F                     _ADCON0	set	31
   101  0005                     _GPIO	set	5
   102  0092                     _PR2	set	146
   103  0095                     _WPU	set	149
   104  0085                     _TRISIO	set	133
   105  009F                     _ANSEL	set	159
   106  008F                     _OSCCON	set	143
   107                           
   108                           ; #config settings
   109  0000                     
   110                           	psect	cinit
   111  06FE                     start_initialization:	
   112  06FE                     __initialization:	
   113  06FE                     end_of_initialization:	
   114                           ;End of C runtime variable initialization code
   115                           
   116  06FE                     __end_of__initialization:	
   117  06FE  0183               	clrf	3
   118  06FF  2ADC               	ljmp	_main	;jump to C main() function
   119                           
   120                           	psect	cstackCOMMON
   121  0071                     __pcstackCOMMON:	
   122  0071                     ?_init:	
   123  0071                     ??_init:	
   124                           ; 1 bytes @ 0x0
   125                           
   126  0071                     ?_main:	
   127                           ; 1 bytes @ 0x0
   128                           
   129  0071                     ?___awdiv:	
   130                           ; 1 bytes @ 0x0
   131                           
   132  0071                     ?___ftpack:	
   133                           ; 2 bytes @ 0x0
   134                           
   135  0071                     ___awdiv@divisor:	
   136                           ; 3 bytes @ 0x0
   137                           
   138  0071                     ___ftpack@arg:	
   139                           ; 2 bytes @ 0x0
   140                           
   141                           
   142                           ; 3 bytes @ 0x0
   143  0071                     	ds	2
   144  0073                     ___awdiv@dividend:	
   145                           
   146                           ; 2 bytes @ 0x2
   147  0073                     	ds	1
   148  0074                     ___ftpack@exp:	
   149                           
   150                           ; 1 bytes @ 0x3
   151  0074                     	ds	1
   152  0075                     ??___awdiv:	
   153  0075                     ___ftpack@sign:	
   154                           ; 1 bytes @ 0x4
   155                           
   156                           
   157                           ; 1 bytes @ 0x4
   158  0075                     	ds	1
   159  0076                     ??___ftpack:	
   160  0076                     ___awdiv@counter:	
   161                           ; 1 bytes @ 0x5
   162                           
   163                           
   164                           ; 1 bytes @ 0x5
   165  0076                     	ds	1
   166  0077                     ___awdiv@sign:	
   167                           
   168                           ; 1 bytes @ 0x6
   169  0077                     	ds	1
   170  0078                     ___awdiv@quotient:	
   171                           
   172                           ; 2 bytes @ 0x7
   173  0078                     	ds	1
   174  0079                     ?___lwtoft:	
   175  0079                     ___lwtoft@c:	
   176                           ; 3 bytes @ 0x8
   177                           
   178                           
   179                           ; 2 bytes @ 0x8
   180  0079                     	ds	1
   181  007A                     ?___awtoft:	
   182  007A                     ___awtoft@c:	
   183                           ; 3 bytes @ 0x9
   184                           
   185                           
   186                           ; 2 bytes @ 0x9
   187  007A                     	ds	2
   188  007C                     ??___lwtoft:	
   189                           
   190                           ; 1 bytes @ 0xB
   191  007C                     	ds	1
   192  007D                     ___awtoft@sign:	
   193                           
   194                           ; 1 bytes @ 0xC
   195  007D                     	ds	1
   196                           
   197                           	psect	cstackBANK0
   198  0020                     __pcstackBANK0:	
   199  0020                     ??___awtoft:	
   200  0020                     ?___ftdiv:	
   201                           ; 1 bytes @ 0x0
   202                           
   203  0020                     ___ftdiv@f2:	
   204                           ; 3 bytes @ 0x0
   205                           
   206                           
   207                           ; 3 bytes @ 0x0
   208  0020                     	ds	3
   209  0023                     ___ftdiv@f1:	
   210                           
   211                           ; 3 bytes @ 0x3
   212  0023                     	ds	3
   213  0026                     ??___ftdiv:	
   214                           
   215                           ; 1 bytes @ 0x6
   216  0026                     	ds	4
   217  002A                     ___ftdiv@cntr:	
   218                           
   219                           ; 1 bytes @ 0xA
   220  002A                     	ds	1
   221  002B                     ___ftdiv@f3:	
   222                           
   223                           ; 3 bytes @ 0xB
   224  002B                     	ds	3
   225  002E                     ___ftdiv@exp:	
   226                           
   227                           ; 1 bytes @ 0xE
   228  002E                     	ds	1
   229  002F                     ___ftdiv@sign:	
   230                           
   231                           ; 1 bytes @ 0xF
   232  002F                     	ds	1
   233  0030                     ?___ftadd:	
   234  0030                     ___ftadd@f1:	
   235                           ; 3 bytes @ 0x10
   236                           
   237                           
   238                           ; 3 bytes @ 0x10
   239  0030                     	ds	3
   240  0033                     ___ftadd@f2:	
   241                           
   242                           ; 3 bytes @ 0x13
   243  0033                     	ds	3
   244  0036                     ??___ftadd:	
   245                           
   246                           ; 1 bytes @ 0x16
   247  0036                     	ds	4
   248  003A                     ___ftadd@sign:	
   249                           
   250                           ; 1 bytes @ 0x1A
   251  003A                     	ds	1
   252  003B                     ___ftadd@exp2:	
   253                           
   254                           ; 1 bytes @ 0x1B
   255  003B                     	ds	1
   256  003C                     ___ftadd@exp1:	
   257                           
   258                           ; 1 bytes @ 0x1C
   259  003C                     	ds	1
   260  003D                     ?___fttol:	
   261  003D                     ___fttol@f1:	
   262                           ; 4 bytes @ 0x1D
   263                           
   264                           
   265                           ; 3 bytes @ 0x1D
   266  003D                     	ds	4
   267  0041                     ??___fttol:	
   268                           
   269                           ; 1 bytes @ 0x21
   270  0041                     	ds	4
   271  0045                     ___fttol@sign1:	
   272                           
   273                           ; 1 bytes @ 0x25
   274  0045                     	ds	1
   275  0046                     ___fttol@lval:	
   276                           
   277                           ; 4 bytes @ 0x26
   278  0046                     	ds	4
   279  004A                     ___fttol@exp1:	
   280                           
   281                           ; 1 bytes @ 0x2A
   282  004A                     	ds	1
   283  004B                     ?_pwmGenerator:	
   284  004B                     pwmGenerator@freq:	
   285                           ; 2 bytes @ 0x2B
   286                           
   287                           
   288                           ; 2 bytes @ 0x2B
   289  004B                     	ds	2
   290  004D                     ??_pwmGenerator:	
   291                           
   292                           ; 1 bytes @ 0x2D
   293  004D                     	ds	2
   294  004F                     pwmGenerator@prescalar:	
   295                           
   296                           ; 1 bytes @ 0x2F
   297  004F                     	ds	1
   298  0050                     pwmGenerator@period:	
   299                           
   300                           ; 3 bytes @ 0x30
   301  0050                     	ds	3
   302  0053                     _pwmGenerator$439:	
   303                           
   304                           ; 3 bytes @ 0x33
   305  0053                     	ds	3
   306  0056                     _pwmGenerator$440:	
   307                           
   308                           ; 3 bytes @ 0x36
   309  0056                     	ds	3
   310  0059                     pwmGenerator@tosc:	
   311                           
   312                           ; 3 bytes @ 0x39
   313  0059                     	ds	3
   314  005C                     pwmGenerator@pr2:	
   315                           
   316                           ; 2 bytes @ 0x3C
   317  005C                     	ds	2
   318  005E                     pwmGenerator@i:	
   319                           
   320                           ; 2 bytes @ 0x3E
   321  005E                     	ds	2
   322  0060                     ??_main:	
   323                           
   324                           ; 1 bytes @ 0x40
   325  0060                     	ds	3
   326  0063                     main@i:	
   327                           
   328                           ; 2 bytes @ 0x43
   329  0063                     	ds	2
   330                           
   331                           	psect	maintext
   332  02DC                     __pmaintext:	
   333 ;;
   334 ;;Main: autosize = 0, tempsize = 3, incstack = 0, save=0
   335 ;;
   336 ;; *************** function _main *****************
   337 ;; Defined at:
   338 ;;		line 30 in file "main.c"
   339 ;; Parameters:    Size  Location     Type
   340 ;;		None
   341 ;; Auto vars:     Size  Location     Type
   342 ;;  i               2   67[BANK0 ] int 
   343 ;; Return value:  Size  Location     Type
   344 ;;                  1    wreg      void 
   345 ;; Registers used:
   346 ;;		wreg, fsr0l, fsr0h, status,2, status,0, btemp+1, pclath, cstack
   347 ;; Tracked objects:
   348 ;;		On entry : B00/0
   349 ;;		On exit  : 0/0
   350 ;;		Unchanged: 0/0
   351 ;; Data sizes:     COMMON   BANK0   BANK1
   352 ;;      Params:         0       0       0
   353 ;;      Locals:         0       2       0
   354 ;;      Temps:          0       3       0
   355 ;;      Totals:         0       5       0
   356 ;;Total ram usage:        5 bytes
   357 ;; Hardware stack levels required when called:    3
   358 ;; This function calls:
   359 ;;		_init
   360 ;;		_pwmGenerator
   361 ;; This function is called by:
   362 ;;		Startup code after reset
   363 ;; This function uses a non-reentrant model
   364 ;;
   365                           
   366                           
   367                           ;psect for function _main
   368  02DC                     _main:	
   369                           
   370                           ;main.c: 31: init();
   371                           
   372                           ;incstack = 0
   373                           ; Regs used in _main: [wreg-fsr0h+status,2+status,0+btemp+1+pclath+cstack]
   374  02DC  229B               	fcall	_init
   375                           
   376                           ;main.c: 37: int i = 0;
   377  02DD  1283               	bcf	3,5	;RP0=0, select bank0
   378  02DE  01E3               	clrf	main@i
   379  02DF  01E4               	clrf	main@i+1
   380                           
   381                           ;main.c: 38: for(i=100;i<=20000;i+=100) {
   382  02E0  3064               	movlw	100
   383  02E1  00E3               	movwf	main@i
   384  02E2  3000               	movlw	0
   385  02E3  00E4               	movwf	main@i+1
   386  02E4  0864               	movf	main@i+1,w
   387  02E5  3A80               	xorlw	128
   388  02E6  00FF               	movwf	127
   389  02E7  30CE               	movlw	206
   390  02E8  027F               	subwf	127,w
   391  02E9  1D03               	skipz
   392  02EA  2AED               	goto	u1415
   393  02EB  3021               	movlw	33
   394  02EC  0263               	subwf	main@i,w
   395  02ED                     u1415:	
   396  02ED  1803               	btfsc	3,0
   397  02EE  2B15               	goto	l1191
   398  02EF                     l1183:	
   399                           
   400                           ;main.c: 39: pwmGenerator(i);
   401  02EF  1283               	bcf	3,5	;RP0=0, select bank0
   402  02F0  0864               	movf	main@i+1,w
   403  02F1  00CC               	movwf	pwmGenerator@freq+1
   404  02F2  0863               	movf	main@i,w
   405  02F3  00CB               	movwf	pwmGenerator@freq
   406  02F4  252A               	fcall	_pwmGenerator
   407                           
   408                           ;main.c: 40: _delay((unsigned long)((500)*(4000000/4000.0)));
   409  02F5  3003               	movlw	3
   410  02F6  1283               	bcf	3,5	;RP0=0, select bank0
   411  02F7  00E2               	movwf	??_main+2
   412  02F8  308A               	movlw	138
   413  02F9  00E1               	movwf	??_main+1
   414  02FA  3055               	movlw	85
   415  02FB  00E0               	movwf	??_main
   416  02FC                     u1437:	
   417  02FC  0BE0               	decfsz	??_main,f
   418  02FD  2AFC               	goto	u1437
   419  02FE  0BE1               	decfsz	??_main+1,f
   420  02FF  2AFC               	goto	u1437
   421  0300  0BE2               	decfsz	??_main+2,f
   422  0301  2AFC               	goto	u1437
   423  0302  0000               	nop
   424  0303  3064               	movlw	100
   425  0304  1283               	bcf	3,5	;RP0=0, select bank0
   426  0305  07E3               	addwf	main@i,f
   427  0306  1803               	skipnc
   428  0307  0AE4               	incf	main@i+1,f
   429  0308  3000               	movlw	0
   430  0309  07E4               	addwf	main@i+1,f
   431  030A  0864               	movf	main@i+1,w
   432  030B  3A80               	xorlw	128
   433  030C  00FF               	movwf	127
   434  030D  30CE               	movlw	206
   435  030E  027F               	subwf	127,w
   436  030F  1D03               	skipz
   437  0310  2B13               	goto	u1425
   438  0311  3021               	movlw	33
   439  0312  0263               	subwf	main@i,w
   440  0313                     u1425:	
   441  0313  1C03               	skipc
   442  0314  2AEF               	goto	l1183
   443  0315                     l1191:	
   444                           ;main.c: 42: }
   445                           ;main.c: 44: while (1) {
   446                           
   447                           
   448                           ;main.c: 49: _delay((unsigned long)((500)*(4000000/4000.0)));
   449  0315  3003               	movlw	3
   450  0316  1283               	bcf	3,5	;RP0=0, select bank0
   451  0317  00E2               	movwf	??_main+2
   452  0318  308A               	movlw	138
   453  0319  00E1               	movwf	??_main+1
   454  031A  3055               	movlw	85
   455  031B  00E0               	movwf	??_main
   456  031C                     u1447:	
   457  031C  0BE0               	decfsz	??_main,f
   458  031D  2B1C               	goto	u1447
   459  031E  0BE1               	decfsz	??_main+1,f
   460  031F  2B1C               	goto	u1447
   461  0320  0BE2               	decfsz	??_main+2,f
   462  0321  2B1C               	goto	u1447
   463  0322  0000               	nop
   464  0323  2B15               	goto	l1191
   465  0324                     __end_of_main:	
   466                           ;main.c: 50: }
   467                           ;main.c: 52: return;
   468                           
   469                           
   470                           	psect	text1
   471  052A                     __ptext1:	
   472 ;; *************** function _pwmGenerator *****************
   473 ;; Defined at:
   474 ;;		line 68 in file "main.c"
   475 ;; Parameters:    Size  Location     Type
   476 ;;  freq            2   43[BANK0 ] int 
   477 ;; Auto vars:     Size  Location     Type
   478 ;;  tosc            3   57[BANK0 ] float 
   479 ;;  period          3   48[BANK0 ] float 
   480 ;;  i               2   62[BANK0 ] unsigned int 
   481 ;;  pr2             2   60[BANK0 ] unsigned int 
   482 ;;  prescalar       1   47[BANK0 ] unsigned char 
   483 ;; Return value:  Size  Location     Type
   484 ;;                  2   43[BANK0 ] int 
   485 ;; Registers used:
   486 ;;		wreg, fsr0l, fsr0h, status,2, status,0, pclath, cstack
   487 ;; Tracked objects:
   488 ;;		On entry : 0/0
   489 ;;		On exit  : 0/0
   490 ;;		Unchanged: 0/0
   491 ;; Data sizes:     COMMON   BANK0   BANK1
   492 ;;      Params:         0       2       0
   493 ;;      Locals:         0      17       0
   494 ;;      Temps:          0       2       0
   495 ;;      Totals:         0      21       0
   496 ;;Total ram usage:       21 bytes
   497 ;; Hardware stack levels used:    1
   498 ;; Hardware stack levels required when called:    2
   499 ;; This function calls:
   500 ;;		___awdiv
   501 ;;		___awtoft
   502 ;;		___ftadd
   503 ;;		___ftdiv
   504 ;;		___fttol
   505 ;;		___lwtoft
   506 ;; This function is called by:
   507 ;;		_main
   508 ;; This function uses a non-reentrant model
   509 ;;
   510                           
   511                           
   512                           ;psect for function _pwmGenerator
   513  052A                     _pwmGenerator:	
   514                           
   515                           ;main.c: 69: float period, tosc = 0;
   516                           
   517                           ;incstack = 0
   518                           ; Regs used in _pwmGenerator: [wreg-fsr0h+status,2+status,0+pclath+cstack]
   519  052A  3000               	movlw	0
   520  052B  1283               	bcf	3,5	;RP0=0, select bank0
   521  052C  00D9               	movwf	pwmGenerator@tosc
   522  052D  3000               	movlw	0
   523  052E  00DA               	movwf	pwmGenerator@tosc+1
   524  052F  3000               	movlw	0
   525  0530  00DB               	movwf	pwmGenerator@tosc+2
   526                           
   527                           ;main.c: 70: unsigned char prescalar = 4;
   528  0531  3004               	movlw	4
   529  0532  00CD               	movwf	??_pwmGenerator
   530  0533  084D               	movf	??_pwmGenerator,w
   531  0534  00CF               	movwf	pwmGenerator@prescalar
   532                           
   533                           ;main.c: 72: period = 1 / freq;
   534  0535  084C               	movf	pwmGenerator@freq+1,w
   535  0536  00F2               	movwf	___awdiv@divisor+1
   536  0537  084B               	movf	pwmGenerator@freq,w
   537  0538  00F1               	movwf	___awdiv@divisor
   538  0539  3001               	movlw	1
   539  053A  00F3               	movwf	___awdiv@dividend
   540  053B  3000               	movlw	0
   541  053C  00F4               	movwf	___awdiv@dividend+1
   542  053D  2324               	fcall	___awdiv
   543  053E  0872               	movf	?___awdiv+1,w
   544  053F  00FB               	movwf	___awtoft@c+1
   545  0540  0871               	movf	?___awdiv,w
   546  0541  00FA               	movwf	___awtoft@c
   547  0542  22BC               	fcall	___awtoft
   548  0543  087A               	movf	?___awtoft,w
   549  0544  1283               	bcf	3,5	;RP0=0, select bank0
   550  0545  00D0               	movwf	pwmGenerator@period
   551  0546  087B               	movf	?___awtoft+1,w
   552  0547  00D1               	movwf	pwmGenerator@period+1
   553  0548  087C               	movf	?___awtoft+2,w
   554  0549  00D2               	movwf	pwmGenerator@period+2
   555                           
   556                           ;main.c: 73: tosc = 1 / 4000000;
   557  054A  3000               	movlw	0
   558  054B  00D9               	movwf	pwmGenerator@tosc
   559  054C  3000               	movlw	0
   560  054D  00DA               	movwf	pwmGenerator@tosc+1
   561  054E  3000               	movlw	0
   562  054F  00DB               	movwf	pwmGenerator@tosc+2
   563                           
   564                           ;main.c: 76: unsigned int pr2, i = 0;
   565  0550  01DE               	clrf	pwmGenerator@i
   566  0551  01DF               	clrf	pwmGenerator@i+1
   567                           
   568                           ;main.c: 77: for (i = 1; i < 17; i = i * 4) {
   569  0552  3001               	movlw	1
   570  0553  00DE               	movwf	pwmGenerator@i
   571  0554  3000               	movlw	0
   572  0555  00DF               	movwf	pwmGenerator@i+1
   573  0556  3000               	movlw	0
   574  0557  025F               	subwf	pwmGenerator@i+1,w
   575  0558  3011               	movlw	17
   576  0559  1903               	skipnz
   577  055A  025E               	subwf	pwmGenerator@i,w
   578  055B  1803               	btfsc	3,0
   579  055C  2DD1               	goto	l1149
   580  055D                     l1137:	
   581                           
   582                           ;main.c: 79: pr2 = period / 4 / tosc / i - 1;
   583  055D  0850               	movf	pwmGenerator@period,w
   584  055E  00A3               	movwf	___ftdiv@f1
   585  055F  0851               	movf	pwmGenerator@period+1,w
   586  0560  00A4               	movwf	___ftdiv@f1+1
   587  0561  0852               	movf	pwmGenerator@period+2,w
   588  0562  00A5               	movwf	___ftdiv@f1+2
   589  0563  3000               	movlw	0
   590  0564  00A0               	movwf	___ftdiv@f2
   591  0565  3080               	movlw	128
   592  0566  00A1               	movwf	___ftdiv@f2+1
   593  0567  3040               	movlw	64
   594  0568  00A2               	movwf	___ftdiv@f2+2
   595  0569  2476               	fcall	___ftdiv
   596  056A  1283               	bcf	3,5	;RP0=0, select bank0
   597  056B  0820               	movf	?___ftdiv,w
   598  056C  00D3               	movwf	_pwmGenerator$439
   599  056D  0821               	movf	?___ftdiv+1,w
   600  056E  00D4               	movwf	_pwmGenerator$439+1
   601  056F  0822               	movf	?___ftdiv+2,w
   602  0570  00D5               	movwf	_pwmGenerator$439+2
   603                           
   604                           ;main.c: 79: pr2 = period / 4 / tosc / i - 1;
   605  0571  0853               	movf	_pwmGenerator$439,w
   606  0572  00A3               	movwf	___ftdiv@f1
   607  0573  0854               	movf	_pwmGenerator$439+1,w
   608  0574  00A4               	movwf	___ftdiv@f1+1
   609  0575  0855               	movf	_pwmGenerator$439+2,w
   610  0576  00A5               	movwf	___ftdiv@f1+2
   611  0577  0859               	movf	pwmGenerator@tosc,w
   612  0578  00A0               	movwf	___ftdiv@f2
   613  0579  085A               	movf	pwmGenerator@tosc+1,w
   614  057A  00A1               	movwf	___ftdiv@f2+1
   615  057B  085B               	movf	pwmGenerator@tosc+2,w
   616  057C  00A2               	movwf	___ftdiv@f2+2
   617  057D  2476               	fcall	___ftdiv
   618  057E  1283               	bcf	3,5	;RP0=0, select bank0
   619  057F  0820               	movf	?___ftdiv,w
   620  0580  00D6               	movwf	_pwmGenerator$440
   621  0581  0821               	movf	?___ftdiv+1,w
   622  0582  00D7               	movwf	_pwmGenerator$440+1
   623  0583  0822               	movf	?___ftdiv+2,w
   624  0584  00D8               	movwf	_pwmGenerator$440+2
   625                           
   626                           ;main.c: 79: pr2 = period / 4 / tosc / i - 1;
   627  0585  0856               	movf	_pwmGenerator$440,w
   628  0586  00A3               	movwf	___ftdiv@f1
   629  0587  0857               	movf	_pwmGenerator$440+1,w
   630  0588  00A4               	movwf	___ftdiv@f1+1
   631  0589  0858               	movf	_pwmGenerator$440+2,w
   632  058A  00A5               	movwf	___ftdiv@f1+2
   633  058B  085F               	movf	pwmGenerator@i+1,w
   634  058C  00FA               	movwf	___lwtoft@c+1
   635  058D  085E               	movf	pwmGenerator@i,w
   636  058E  00F9               	movwf	___lwtoft@c
   637  058F  22AA               	fcall	___lwtoft
   638  0590  0879               	movf	?___lwtoft,w
   639  0591  1283               	bcf	3,5	;RP0=0, select bank0
   640  0592  00A0               	movwf	___ftdiv@f2
   641  0593  087A               	movf	?___lwtoft+1,w
   642  0594  00A1               	movwf	___ftdiv@f2+1
   643  0595  087B               	movf	?___lwtoft+2,w
   644  0596  00A2               	movwf	___ftdiv@f2+2
   645  0597  2476               	fcall	___ftdiv
   646  0598  1283               	bcf	3,5	;RP0=0, select bank0
   647  0599  0820               	movf	?___ftdiv,w
   648  059A  00B3               	movwf	___ftadd@f2
   649  059B  0821               	movf	?___ftdiv+1,w
   650  059C  00B4               	movwf	___ftadd@f2+1
   651  059D  0822               	movf	?___ftdiv+2,w
   652  059E  00B5               	movwf	___ftadd@f2+2
   653  059F  3000               	movlw	0
   654  05A0  00B0               	movwf	___ftadd@f1
   655  05A1  3080               	movlw	128
   656  05A2  00B1               	movwf	___ftadd@f1+1
   657  05A3  30BF               	movlw	191
   658  05A4  00B2               	movwf	___ftadd@f1+2
   659  05A5  25F9               	fcall	___ftadd
   660  05A6  1283               	bcf	3,5	;RP0=0, select bank0
   661  05A7  0830               	movf	?___ftadd,w
   662  05A8  00BD               	movwf	___fttol@f1
   663  05A9  0831               	movf	?___ftadd+1,w
   664  05AA  00BE               	movwf	___fttol@f1+1
   665  05AB  0832               	movf	?___ftadd+2,w
   666  05AC  00BF               	movwf	___fttol@f1+2
   667  05AD  23E9               	fcall	___fttol
   668  05AE  1283               	bcf	3,5	;RP0=0, select bank0
   669  05AF  083E               	movf	?___fttol+1,w
   670  05B0  00DD               	movwf	pwmGenerator@pr2+1
   671  05B1  083D               	movf	?___fttol,w
   672  05B2  00DC               	movwf	pwmGenerator@pr2
   673                           
   674                           ;main.c: 80: if (pr2 < 255) {
   675  05B3  3000               	movlw	0
   676  05B4  025D               	subwf	pwmGenerator@pr2+1,w
   677  05B5  30FF               	movlw	255
   678  05B6  1903               	skipnz
   679  05B7  025C               	subwf	pwmGenerator@pr2,w
   680  05B8  1C03               	btfss	3,0
   681  05B9  2DD1               	goto	l1149
   682                           
   683                           ;main.c: 82: }
   684                           ;main.c: 83: pr2 = 0;
   685                           
   686                           ;main.c: 81: break;
   687  05BA  01DC               	clrf	pwmGenerator@pr2
   688  05BB  01DD               	clrf	pwmGenerator@pr2+1
   689  05BC  085F               	movf	pwmGenerator@i+1,w
   690  05BD  00CE               	movwf	??_pwmGenerator+1
   691  05BE  085E               	movf	pwmGenerator@i,w
   692  05BF  00CD               	movwf	??_pwmGenerator
   693  05C0  1003               	clrc
   694  05C1  0DCD               	rlf	??_pwmGenerator,f
   695  05C2  0DCE               	rlf	??_pwmGenerator+1,f
   696  05C3  1003               	clrc
   697  05C4  0DCD               	rlf	??_pwmGenerator,f
   698  05C5  0DCE               	rlf	??_pwmGenerator+1,f
   699  05C6  084D               	movf	??_pwmGenerator,w
   700  05C7  00DE               	movwf	pwmGenerator@i
   701  05C8  084E               	movf	??_pwmGenerator+1,w
   702  05C9  00DF               	movwf	pwmGenerator@i+1
   703  05CA  3000               	movlw	0
   704  05CB  025F               	subwf	pwmGenerator@i+1,w
   705  05CC  3011               	movlw	17
   706  05CD  1903               	skipnz
   707  05CE  025E               	subwf	pwmGenerator@i,w
   708  05CF  1C03               	skipc
   709  05D0  2D5D               	goto	l1137
   710  05D1                     l1149:	
   711                           
   712                           ;main.c: 84: }
   713                           ;main.c: 86: if (pr2) {
   714  05D1  085C               	movf	pwmGenerator@pr2,w
   715  05D2  045D               	iorwf	pwmGenerator@pr2+1,w
   716  05D3  1903               	btfsc	3,2
   717  05D4  0008               	return
   718                           
   719                           ;main.c: 88: PR2 = pr2;
   720  05D5  085C               	movf	pwmGenerator@pr2,w
   721  05D6  1683               	bsf	3,5	;RP0=1, select bank1
   722  05D7  0092               	movwf	18	;volatile
   723                           
   724                           ;main.c: 90: switch (i) {
   725  05D8  2DE3               	goto	l1163
   726  05D9                     l1153:	
   727                           ;main.c: 91: case 1:
   728                           
   729                           
   730                           ;main.c: 92: T2CON = 0b00000100;
   731  05D9  3004               	movlw	4
   732  05DA  1283               	bcf	3,5	;RP0=0, select bank0
   733  05DB  2DE1               	goto	L3
   734  05DC                     l1155:	
   735                           ;main.c: 94: case 4:
   736                           
   737                           ;main.c: 93: break;
   738                           
   739                           
   740                           ;main.c: 95: T2CON = 0b00000101;
   741  05DC  3005               	movlw	5
   742  05DD  2DE1               	goto	L3
   743  05DE                     l1157:	
   744                           ;main.c: 97: case 16:
   745                           
   746                           ;main.c: 96: break;
   747                           
   748                           
   749                           ;main.c: 98: T2CON = 0b00000110;
   750  05DE  3006               	movlw	6
   751  05DF  2DE1               	goto	L3
   752  05E0                     l1159:	
   753                           ;main.c: 100: default:
   754                           
   755                           ;main.c: 99: break;
   756                           
   757                           
   758                           ;main.c: 101: T2CON = 0b00000100;
   759  05E0  3004               	movlw	4
   760  05E1                     L3:	
   761  05E1  0092               	movwf	18	;volatile
   762                           
   763                           ;main.c: 103: }
   764                           
   765                           ;main.c: 102: break;
   766  05E2  2DF4               	goto	l1165
   767  05E3                     l1163:	
   768                           
   769                           ; Switch on 2 bytes has been partitioned into a top level switch of size 1, and 1 sub-sw
      +                          itches
   770                           ; Switch size 1, requested type "space"
   771                           ; Number of cases is 1, Range of values is 0 to 0
   772                           ; switch strategies available:
   773                           ; Name         Instructions Cycles
   774                           ; simple_byte            4     3 (average)
   775                           ; direct_byte            7     6 (fixed)
   776                           ; jumptable            260     6 (fixed)
   777                           ;	Chosen strategy is simple_byte
   778  05E3  1283               	bcf	3,5	;RP0=0, select bank0
   779  05E4  085F               	movf	pwmGenerator@i+1,w
   780  05E5  3A00               	xorlw	0	; case 0
   781  05E6  1903               	skipnz
   782  05E7  2DE9               	goto	l1213
   783  05E8  2DE0               	goto	l1159
   784  05E9                     l1213:	
   785                           
   786                           ; Switch size 1, requested type "space"
   787                           ; Number of cases is 3, Range of values is 1 to 16
   788                           ; switch strategies available:
   789                           ; Name         Instructions Cycles
   790                           ; simple_byte           10     6 (average)
   791                           ; direct_byte           25     9 (fixed)
   792                           ; jumptable            263     9 (fixed)
   793                           ;	Chosen strategy is simple_byte
   794  05E9  085E               	movf	pwmGenerator@i,w
   795  05EA  3A01               	xorlw	1	; case 1
   796  05EB  1903               	skipnz
   797  05EC  2DD9               	goto	l1153
   798  05ED  3A05               	xorlw	5	; case 4
   799  05EE  1903               	skipnz
   800  05EF  2DDC               	goto	l1155
   801  05F0  3A14               	xorlw	20	; case 16
   802  05F1  1903               	skipnz
   803  05F2  2DDE               	goto	l1157
   804  05F3  2DE0               	goto	l1159
   805  05F4                     l1165:	
   806                           
   807                           ;main.c: 106: CCPR1L = 0b10101110;
   808  05F4  30AE               	movlw	174
   809  05F5  0093               	movwf	19	;volatile
   810                           
   811                           ;main.c: 107: CCP1CON = 0b00111100;
   812  05F6  303C               	movlw	60
   813  05F7  0095               	movwf	21	;volatile
   814                           
   815                           ;main.c: 108: return 1;
   816                           ;	Return value of _pwmGenerator is never used
   817  05F8  0008               	return
   818  05F9                     __end_of_pwmGenerator:	
   819                           ;main.c: 109: }
   820                           ;main.c: 111: return 0;
   821                           ;	Return value of _pwmGenerator is never used
   822                           
   823                           
   824                           	psect	text2
   825  02AA                     __ptext2:	
   826 ;; *************** function ___lwtoft *****************
   827 ;; Defined at:
   828 ;;		line 28 in file "/Applications/microchip/xc8/v1.41/sources/common/lwtoft.c"
   829 ;; Parameters:    Size  Location     Type
   830 ;;  c               2    8[COMMON] unsigned int 
   831 ;; Auto vars:     Size  Location     Type
   832 ;;		None
   833 ;; Return value:  Size  Location     Type
   834 ;;                  3    8[COMMON] float 
   835 ;; Registers used:
   836 ;;		wreg, status,2, status,0, pclath, cstack
   837 ;; Tracked objects:
   838 ;;		On entry : 0/0
   839 ;;		On exit  : 0/0
   840 ;;		Unchanged: 0/0
   841 ;; Data sizes:     COMMON   BANK0   BANK1
   842 ;;      Params:         3       0       0
   843 ;;      Locals:         0       0       0
   844 ;;      Temps:          1       0       0
   845 ;;      Totals:         4       0       0
   846 ;;Total ram usage:        4 bytes
   847 ;; Hardware stack levels used:    1
   848 ;; Hardware stack levels required when called:    1
   849 ;; This function calls:
   850 ;;		___ftpack
   851 ;; This function is called by:
   852 ;;		_pwmGenerator
   853 ;; This function uses a non-reentrant model
   854 ;;
   855                           
   856                           
   857                           ;psect for function ___lwtoft
   858  02AA                     ___lwtoft:	
   859                           
   860                           ;incstack = 0
   861                           ; Regs used in ___lwtoft: [wreg+status,2+status,0+pclath+cstack]
   862  02AA  0879               	movf	___lwtoft@c,w
   863  02AB  00F1               	movwf	___ftpack@arg
   864  02AC  087A               	movf	___lwtoft@c+1,w
   865  02AD  00F2               	movwf	___ftpack@arg+1
   866  02AE  01F3               	clrf	___ftpack@arg+2
   867  02AF  308E               	movlw	142
   868  02B0  00FC               	movwf	??___lwtoft
   869  02B1  087C               	movf	??___lwtoft,w
   870  02B2  00F4               	movwf	___ftpack@exp
   871  02B3  01F5               	clrf	___ftpack@sign
   872  02B4  237D               	fcall	___ftpack
   873  02B5  0871               	movf	?___ftpack,w
   874  02B6  00F9               	movwf	?___lwtoft
   875  02B7  0872               	movf	?___ftpack+1,w
   876  02B8  00FA               	movwf	?___lwtoft+1
   877  02B9  0873               	movf	?___ftpack+2,w
   878  02BA  00FB               	movwf	?___lwtoft+2
   879  02BB  0008               	return
   880  02BC                     __end_of___lwtoft:	
   881                           
   882                           	psect	text3
   883  03E9                     __ptext3:	
   884 ;; *************** function ___fttol *****************
   885 ;; Defined at:
   886 ;;		line 44 in file "/Applications/microchip/xc8/v1.41/sources/common/fttol.c"
   887 ;; Parameters:    Size  Location     Type
   888 ;;  f1              3   29[BANK0 ] float 
   889 ;; Auto vars:     Size  Location     Type
   890 ;;  lval            4   38[BANK0 ] unsigned long 
   891 ;;  exp1            1   42[BANK0 ] unsigned char 
   892 ;;  sign1           1   37[BANK0 ] unsigned char 
   893 ;; Return value:  Size  Location     Type
   894 ;;                  4   29[BANK0 ] long 
   895 ;; Registers used:
   896 ;;		wreg, status,2, status,0
   897 ;; Tracked objects:
   898 ;;		On entry : 0/0
   899 ;;		On exit  : 0/0
   900 ;;		Unchanged: 0/0
   901 ;; Data sizes:     COMMON   BANK0   BANK1
   902 ;;      Params:         0       4       0
   903 ;;      Locals:         0       6       0
   904 ;;      Temps:          0       4       0
   905 ;;      Totals:         0      14       0
   906 ;;Total ram usage:       14 bytes
   907 ;; Hardware stack levels used:    1
   908 ;; This function calls:
   909 ;;		Nothing
   910 ;; This function is called by:
   911 ;;		_pwmGenerator
   912 ;; This function uses a non-reentrant model
   913 ;;
   914                           
   915                           
   916                           ;psect for function ___fttol
   917  03E9                     ___fttol:	
   918                           
   919                           ;incstack = 0
   920                           ; Regs used in ___fttol: [wreg+status,2+status,0]
   921  03E9  1283               	bcf	3,5	;RP0=0, select bank0
   922  03EA  083D               	movf	___fttol@f1,w
   923  03EB  00C1               	movwf	??___fttol
   924  03EC  083E               	movf	___fttol@f1+1,w
   925  03ED  00C2               	movwf	??___fttol+1
   926  03EE  083F               	movf	___fttol@f1+2,w
   927  03EF  00C3               	movwf	??___fttol+2
   928  03F0  1003               	clrc
   929  03F1  0D42               	rlf	??___fttol+1,w
   930  03F2  0D43               	rlf	??___fttol+2,w
   931  03F3  00C4               	movwf	??___fttol+3
   932  03F4  0844               	movf	??___fttol+3,w
   933  03F5  00CA               	movwf	___fttol@exp1
   934  03F6  084A               	movf	___fttol@exp1,w
   935  03F7  1D03               	btfss	3,2
   936  03F8  2C02               	goto	l1071
   937  03F9  3000               	movlw	0
   938  03FA  00C0               	movwf	?___fttol+3
   939  03FB  3000               	movlw	0
   940  03FC  00BF               	movwf	?___fttol+2
   941  03FD  3000               	movlw	0
   942  03FE  00BE               	movwf	?___fttol+1
   943  03FF  3000               	movlw	0
   944  0400  00BD               	movwf	?___fttol
   945  0401  0008               	return
   946  0402                     l1071:	
   947  0402  083D               	movf	___fttol@f1,w
   948  0403  00C1               	movwf	??___fttol
   949  0404  083E               	movf	___fttol@f1+1,w
   950  0405  00C2               	movwf	??___fttol+1
   951  0406  083F               	movf	___fttol@f1+2,w
   952  0407  00C3               	movwf	??___fttol+2
   953  0408  3017               	movlw	23
   954  0409                     u1285:	
   955  0409  1003               	clrc
   956  040A  0CC3               	rrf	??___fttol+2,f
   957  040B  0CC2               	rrf	??___fttol+1,f
   958  040C  0CC1               	rrf	??___fttol,f
   959  040D  3EFF               	addlw	-1
   960  040E  1D03               	skipz
   961  040F  2C09               	goto	u1285
   962  0410  0841               	movf	??___fttol,w
   963  0411  00C4               	movwf	??___fttol+3
   964  0412  0844               	movf	??___fttol+3,w
   965  0413  00C5               	movwf	___fttol@sign1
   966  0414  17BE               	bsf	___fttol@f1+1,7
   967  0415  30FF               	movlw	255
   968  0416  05BD               	andwf	___fttol@f1,f
   969  0417  30FF               	movlw	255
   970  0418  05BE               	andwf	___fttol@f1+1,f
   971  0419  3000               	movlw	0
   972  041A  05BF               	andwf	___fttol@f1+2,f
   973  041B  083D               	movf	___fttol@f1,w
   974  041C  00C6               	movwf	___fttol@lval
   975  041D  083E               	movf	___fttol@f1+1,w
   976  041E  00C7               	movwf	___fttol@lval+1
   977  041F  083F               	movf	___fttol@f1+2,w
   978  0420  00C8               	movwf	___fttol@lval+2
   979  0421  01C9               	clrf	___fttol@lval+3
   980  0422  308E               	movlw	142
   981  0423  02CA               	subwf	___fttol@exp1,f
   982  0424  1FCA               	btfss	___fttol@exp1,7
   983  0425  2C44               	goto	l1091
   984  0426  084A               	movf	___fttol@exp1,w
   985  0427  3A80               	xorlw	128
   986  0428  3E8F               	addlw	143
   987  0429  1803               	skipnc
   988  042A  2C34               	goto	l1089
   989  042B  3000               	movlw	0
   990  042C  00C0               	movwf	?___fttol+3
   991  042D  3000               	movlw	0
   992  042E  00BF               	movwf	?___fttol+2
   993  042F  3000               	movlw	0
   994  0430  00BE               	movwf	?___fttol+1
   995  0431  3000               	movlw	0
   996  0432  00BD               	movwf	?___fttol
   997  0433  0008               	return
   998  0434                     l1089:	
   999  0434  3001               	movlw	1
  1000  0435                     u1315:	
  1001  0435  1003               	clrc
  1002  0436  0CC9               	rrf	___fttol@lval+3,f
  1003  0437  0CC8               	rrf	___fttol@lval+2,f
  1004  0438  0CC7               	rrf	___fttol@lval+1,f
  1005  0439  0CC6               	rrf	___fttol@lval,f
  1006  043A  3EFF               	addlw	-1
  1007  043B  1D03               	skipz
  1008  043C  2C35               	goto	u1315
  1009  043D  3001               	movlw	1
  1010  043E  00C1               	movwf	??___fttol
  1011  043F  0841               	movf	??___fttol,w
  1012  0440  07CA               	addwf	___fttol@exp1,f
  1013  0441  1903               	btfsc	3,2
  1014  0442  2C5F               	goto	l1099
  1015  0443  2C34               	goto	l1089
  1016  0444                     l1091:	
  1017  0444  3018               	movlw	24
  1018  0445  024A               	subwf	___fttol@exp1,w
  1019  0446  1C03               	skipc
  1020  0447  2C5C               	goto	l391
  1021  0448  3000               	movlw	0
  1022  0449  00C0               	movwf	?___fttol+3
  1023  044A  3000               	movlw	0
  1024  044B  00BF               	movwf	?___fttol+2
  1025  044C  3000               	movlw	0
  1026  044D  00BE               	movwf	?___fttol+1
  1027  044E  3000               	movlw	0
  1028  044F  00BD               	movwf	?___fttol
  1029  0450  0008               	return
  1030  0451                     l1097:	
  1031  0451  3001               	movlw	1
  1032  0452  00C1               	movwf	??___fttol
  1033  0453                     u1345:	
  1034  0453  1003               	clrc
  1035  0454  0DC6               	rlf	___fttol@lval,f
  1036  0455  0DC7               	rlf	___fttol@lval+1,f
  1037  0456  0DC8               	rlf	___fttol@lval+2,f
  1038  0457  0DC9               	rlf	___fttol@lval+3,f
  1039  0458  0BC1               	decfsz	??___fttol,f
  1040  0459  2C53               	goto	u1345
  1041  045A  3001               	movlw	1
  1042  045B  02CA               	subwf	___fttol@exp1,f
  1043  045C                     l391:	
  1044  045C  084A               	movf	___fttol@exp1,w
  1045  045D  1D03               	btfss	3,2
  1046  045E  2C51               	goto	l1097
  1047  045F                     l1099:	
  1048  045F  0845               	movf	___fttol@sign1,w
  1049  0460  1903               	btfsc	3,2
  1050  0461  2C6D               	goto	l1103
  1051  0462  09C6               	comf	___fttol@lval,f
  1052  0463  09C7               	comf	___fttol@lval+1,f
  1053  0464  09C8               	comf	___fttol@lval+2,f
  1054  0465  09C9               	comf	___fttol@lval+3,f
  1055  0466  0AC6               	incf	___fttol@lval,f
  1056  0467  1903               	skipnz
  1057  0468  0AC7               	incf	___fttol@lval+1,f
  1058  0469  1903               	skipnz
  1059  046A  0AC8               	incf	___fttol@lval+2,f
  1060  046B  1903               	skipnz
  1061  046C  0AC9               	incf	___fttol@lval+3,f
  1062  046D                     l1103:	
  1063  046D  0849               	movf	___fttol@lval+3,w
  1064  046E  00C0               	movwf	?___fttol+3
  1065  046F  0848               	movf	___fttol@lval+2,w
  1066  0470  00BF               	movwf	?___fttol+2
  1067  0471  0847               	movf	___fttol@lval+1,w
  1068  0472  00BE               	movwf	?___fttol+1
  1069  0473  0846               	movf	___fttol@lval,w
  1070  0474  00BD               	movwf	?___fttol
  1071  0475  0008               	return
  1072  0476                     __end_of___fttol:	
  1073                           
  1074                           	psect	text4
  1075  0476                     __ptext4:	
  1076 ;; *************** function ___ftdiv *****************
  1077 ;; Defined at:
  1078 ;;		line 56 in file "/Applications/microchip/xc8/v1.41/sources/common/ftdiv.c"
  1079 ;; Parameters:    Size  Location     Type
  1080 ;;  f2              3    0[BANK0 ] float 
  1081 ;;  f1              3    3[BANK0 ] float 
  1082 ;; Auto vars:     Size  Location     Type
  1083 ;;  f3              3   11[BANK0 ] float 
  1084 ;;  sign            1   15[BANK0 ] unsigned char 
  1085 ;;  exp             1   14[BANK0 ] unsigned char 
  1086 ;;  cntr            1   10[BANK0 ] unsigned char 
  1087 ;; Return value:  Size  Location     Type
  1088 ;;                  3    0[BANK0 ] float 
  1089 ;; Registers used:
  1090 ;;		wreg, status,2, status,0, pclath, cstack
  1091 ;; Tracked objects:
  1092 ;;		On entry : 0/0
  1093 ;;		On exit  : 0/0
  1094 ;;		Unchanged: 0/0
  1095 ;; Data sizes:     COMMON   BANK0   BANK1
  1096 ;;      Params:         0       6       0
  1097 ;;      Locals:         0       6       0
  1098 ;;      Temps:          0       4       0
  1099 ;;      Totals:         0      16       0
  1100 ;;Total ram usage:       16 bytes
  1101 ;; Hardware stack levels used:    1
  1102 ;; Hardware stack levels required when called:    1
  1103 ;; This function calls:
  1104 ;;		___ftpack
  1105 ;; This function is called by:
  1106 ;;		_pwmGenerator
  1107 ;; This function uses a non-reentrant model
  1108 ;;
  1109                           
  1110                           
  1111                           ;psect for function ___ftdiv
  1112  0476                     ___ftdiv:	
  1113                           
  1114                           ;incstack = 0
  1115                           ; Regs used in ___ftdiv: [wreg+status,2+status,0+pclath+cstack]
  1116  0476  1283               	bcf	3,5	;RP0=0, select bank0
  1117  0477  0823               	movf	___ftdiv@f1,w
  1118  0478  00A6               	movwf	??___ftdiv
  1119  0479  0824               	movf	___ftdiv@f1+1,w
  1120  047A  00A7               	movwf	??___ftdiv+1
  1121  047B  0825               	movf	___ftdiv@f1+2,w
  1122  047C  00A8               	movwf	??___ftdiv+2
  1123  047D  1003               	clrc
  1124  047E  0D27               	rlf	??___ftdiv+1,w
  1125  047F  0D28               	rlf	??___ftdiv+2,w
  1126  0480  00A9               	movwf	??___ftdiv+3
  1127  0481  0829               	movf	??___ftdiv+3,w
  1128  0482  00AE               	movwf	___ftdiv@exp
  1129  0483  082E               	movf	___ftdiv@exp,w
  1130  0484  1D03               	btfss	3,2
  1131  0485  2C8D               	goto	l1029
  1132  0486  3000               	movlw	0
  1133  0487  00A0               	movwf	?___ftdiv
  1134  0488  3000               	movlw	0
  1135  0489  00A1               	movwf	?___ftdiv+1
  1136  048A  3000               	movlw	0
  1137  048B  00A2               	movwf	?___ftdiv+2
  1138  048C  0008               	return
  1139  048D                     l1029:	
  1140  048D  0820               	movf	___ftdiv@f2,w
  1141  048E  00A6               	movwf	??___ftdiv
  1142  048F  0821               	movf	___ftdiv@f2+1,w
  1143  0490  00A7               	movwf	??___ftdiv+1
  1144  0491  0822               	movf	___ftdiv@f2+2,w
  1145  0492  00A8               	movwf	??___ftdiv+2
  1146  0493  1003               	clrc
  1147  0494  0D27               	rlf	??___ftdiv+1,w
  1148  0495  0D28               	rlf	??___ftdiv+2,w
  1149  0496  00A9               	movwf	??___ftdiv+3
  1150  0497  0829               	movf	??___ftdiv+3,w
  1151  0498  00AF               	movwf	___ftdiv@sign
  1152  0499  082F               	movf	___ftdiv@sign,w
  1153  049A  1D03               	btfss	3,2
  1154  049B  2CA3               	goto	l1035
  1155  049C  3000               	movlw	0
  1156  049D  00A0               	movwf	?___ftdiv
  1157  049E  3000               	movlw	0
  1158  049F  00A1               	movwf	?___ftdiv+1
  1159  04A0  3000               	movlw	0
  1160  04A1  00A2               	movwf	?___ftdiv+2
  1161  04A2  0008               	return
  1162  04A3                     l1035:	
  1163  04A3  3000               	movlw	0
  1164  04A4  00AB               	movwf	___ftdiv@f3
  1165  04A5  3000               	movlw	0
  1166  04A6  00AC               	movwf	___ftdiv@f3+1
  1167  04A7  3000               	movlw	0
  1168  04A8  00AD               	movwf	___ftdiv@f3+2
  1169  04A9  3089               	movlw	137
  1170  04AA  072F               	addwf	___ftdiv@sign,w
  1171  04AB  00A6               	movwf	??___ftdiv
  1172  04AC  0826               	movf	??___ftdiv,w
  1173  04AD  02AE               	subwf	___ftdiv@exp,f
  1174  04AE  0823               	movf	___ftdiv@f1,w
  1175  04AF  00A6               	movwf	??___ftdiv
  1176  04B0  0824               	movf	___ftdiv@f1+1,w
  1177  04B1  00A7               	movwf	??___ftdiv+1
  1178  04B2  0825               	movf	___ftdiv@f1+2,w
  1179  04B3  00A8               	movwf	??___ftdiv+2
  1180  04B4  3010               	movlw	16
  1181  04B5                     u1215:	
  1182  04B5  1003               	clrc
  1183  04B6  0CA8               	rrf	??___ftdiv+2,f
  1184  04B7  0CA7               	rrf	??___ftdiv+1,f
  1185  04B8  0CA6               	rrf	??___ftdiv,f
  1186  04B9  3EFF               	addlw	-1
  1187  04BA  1D03               	skipz
  1188  04BB  2CB5               	goto	u1215
  1189  04BC  0826               	movf	??___ftdiv,w
  1190  04BD  00A9               	movwf	??___ftdiv+3
  1191  04BE  0829               	movf	??___ftdiv+3,w
  1192  04BF  00AF               	movwf	___ftdiv@sign
  1193  04C0  0820               	movf	___ftdiv@f2,w
  1194  04C1  00A6               	movwf	??___ftdiv
  1195  04C2  0821               	movf	___ftdiv@f2+1,w
  1196  04C3  00A7               	movwf	??___ftdiv+1
  1197  04C4  0822               	movf	___ftdiv@f2+2,w
  1198  04C5  00A8               	movwf	??___ftdiv+2
  1199  04C6  3010               	movlw	16
  1200  04C7                     u1225:	
  1201  04C7  1003               	clrc
  1202  04C8  0CA8               	rrf	??___ftdiv+2,f
  1203  04C9  0CA7               	rrf	??___ftdiv+1,f
  1204  04CA  0CA6               	rrf	??___ftdiv,f
  1205  04CB  3EFF               	addlw	-1
  1206  04CC  1D03               	skipz
  1207  04CD  2CC7               	goto	u1225
  1208  04CE  0826               	movf	??___ftdiv,w
  1209  04CF  00A9               	movwf	??___ftdiv+3
  1210  04D0  0829               	movf	??___ftdiv+3,w
  1211  04D1  06AF               	xorwf	___ftdiv@sign,f
  1212  04D2  3080               	movlw	128
  1213  04D3  00A6               	movwf	??___ftdiv
  1214  04D4  0826               	movf	??___ftdiv,w
  1215  04D5  05AF               	andwf	___ftdiv@sign,f
  1216  04D6  17A4               	bsf	___ftdiv@f1+1,7
  1217  04D7  30FF               	movlw	255
  1218  04D8  05A3               	andwf	___ftdiv@f1,f
  1219  04D9  30FF               	movlw	255
  1220  04DA  05A4               	andwf	___ftdiv@f1+1,f
  1221  04DB  3000               	movlw	0
  1222  04DC  05A5               	andwf	___ftdiv@f1+2,f
  1223  04DD  17A1               	bsf	___ftdiv@f2+1,7
  1224  04DE  30FF               	movlw	255
  1225  04DF  05A0               	andwf	___ftdiv@f2,f
  1226  04E0  30FF               	movlw	255
  1227  04E1  05A1               	andwf	___ftdiv@f2+1,f
  1228  04E2  3000               	movlw	0
  1229  04E3  05A2               	andwf	___ftdiv@f2+2,f
  1230  04E4  3018               	movlw	24
  1231  04E5  00A6               	movwf	??___ftdiv
  1232  04E6  0826               	movf	??___ftdiv,w
  1233  04E7  00AA               	movwf	___ftdiv@cntr
  1234  04E8                     l1049:	
  1235  04E8  3001               	movlw	1
  1236  04E9                     u1235:	
  1237  04E9  1003               	clrc
  1238  04EA  0DAB               	rlf	___ftdiv@f3,f
  1239  04EB  0DAC               	rlf	___ftdiv@f3+1,f
  1240  04EC  0DAD               	rlf	___ftdiv@f3+2,f
  1241  04ED  3EFF               	addlw	-1
  1242  04EE  1D03               	skipz
  1243  04EF  2CE9               	goto	u1235
  1244  04F0  0822               	movf	___ftdiv@f2+2,w
  1245  04F1  0225               	subwf	___ftdiv@f1+2,w
  1246  04F2  1D03               	skipz
  1247  04F3  2CFA               	goto	u1245
  1248  04F4  0821               	movf	___ftdiv@f2+1,w
  1249  04F5  0224               	subwf	___ftdiv@f1+1,w
  1250  04F6  1D03               	skipz
  1251  04F7  2CFA               	goto	u1245
  1252  04F8  0820               	movf	___ftdiv@f2,w
  1253  04F9  0223               	subwf	___ftdiv@f1,w
  1254  04FA                     u1245:	
  1255  04FA  1C03               	skipc
  1256  04FB  2D07               	goto	l1057
  1257  04FC  0820               	movf	___ftdiv@f2,w
  1258  04FD  02A3               	subwf	___ftdiv@f1,f
  1259  04FE  0821               	movf	___ftdiv@f2+1,w
  1260  04FF  1C03               	skipc
  1261  0500  0F21               	incfsz	___ftdiv@f2+1,w
  1262  0501  02A4               	subwf	___ftdiv@f1+1,f
  1263  0502  0822               	movf	___ftdiv@f2+2,w
  1264  0503  1C03               	skipc
  1265  0504  0A22               	incf	___ftdiv@f2+2,w
  1266  0505  02A5               	subwf	___ftdiv@f1+2,f
  1267  0506  142B               	bsf	___ftdiv@f3,0
  1268  0507                     l1057:	
  1269  0507  3001               	movlw	1
  1270  0508                     u1255:	
  1271  0508  1003               	clrc
  1272  0509  0DA3               	rlf	___ftdiv@f1,f
  1273  050A  0DA4               	rlf	___ftdiv@f1+1,f
  1274  050B  0DA5               	rlf	___ftdiv@f1+2,f
  1275  050C  3EFF               	addlw	-1
  1276  050D  1D03               	skipz
  1277  050E  2D08               	goto	u1255
  1278  050F  3001               	movlw	1
  1279  0510  02AA               	subwf	___ftdiv@cntr,f
  1280  0511  1D03               	btfss	3,2
  1281  0512  2CE8               	goto	l1049
  1282  0513  082B               	movf	___ftdiv@f3,w
  1283  0514  00F1               	movwf	___ftpack@arg
  1284  0515  082C               	movf	___ftdiv@f3+1,w
  1285  0516  00F2               	movwf	___ftpack@arg+1
  1286  0517  082D               	movf	___ftdiv@f3+2,w
  1287  0518  00F3               	movwf	___ftpack@arg+2
  1288  0519  082E               	movf	___ftdiv@exp,w
  1289  051A  00A6               	movwf	??___ftdiv
  1290  051B  0826               	movf	??___ftdiv,w
  1291  051C  00F4               	movwf	___ftpack@exp
  1292  051D  082F               	movf	___ftdiv@sign,w
  1293  051E  00A7               	movwf	??___ftdiv+1
  1294  051F  0827               	movf	??___ftdiv+1,w
  1295  0520  00F5               	movwf	___ftpack@sign
  1296  0521  237D               	fcall	___ftpack
  1297  0522  0871               	movf	?___ftpack,w
  1298  0523  1283               	bcf	3,5	;RP0=0, select bank0
  1299  0524  00A0               	movwf	?___ftdiv
  1300  0525  0872               	movf	?___ftpack+1,w
  1301  0526  00A1               	movwf	?___ftdiv+1
  1302  0527  0873               	movf	?___ftpack+2,w
  1303  0528  00A2               	movwf	?___ftdiv+2
  1304  0529  0008               	return
  1305  052A                     __end_of___ftdiv:	
  1306                           
  1307                           	psect	text5
  1308  05F9                     __ptext5:	
  1309 ;; *************** function ___ftadd *****************
  1310 ;; Defined at:
  1311 ;;		line 86 in file "/Applications/microchip/xc8/v1.41/sources/common/ftadd.c"
  1312 ;; Parameters:    Size  Location     Type
  1313 ;;  f1              3   16[BANK0 ] float 
  1314 ;;  f2              3   19[BANK0 ] float 
  1315 ;; Auto vars:     Size  Location     Type
  1316 ;;  exp1            1   28[BANK0 ] unsigned char 
  1317 ;;  exp2            1   27[BANK0 ] unsigned char 
  1318 ;;  sign            1   26[BANK0 ] unsigned char 
  1319 ;; Return value:  Size  Location     Type
  1320 ;;                  3   16[BANK0 ] float 
  1321 ;; Registers used:
  1322 ;;		wreg, status,2, status,0, pclath, cstack
  1323 ;; Tracked objects:
  1324 ;;		On entry : 0/0
  1325 ;;		On exit  : 0/0
  1326 ;;		Unchanged: 0/0
  1327 ;; Data sizes:     COMMON   BANK0   BANK1
  1328 ;;      Params:         0       6       0
  1329 ;;      Locals:         0       3       0
  1330 ;;      Temps:          0       4       0
  1331 ;;      Totals:         0      13       0
  1332 ;;Total ram usage:       13 bytes
  1333 ;; Hardware stack levels used:    1
  1334 ;; Hardware stack levels required when called:    1
  1335 ;; This function calls:
  1336 ;;		___ftpack
  1337 ;; This function is called by:
  1338 ;;		_pwmGenerator
  1339 ;; This function uses a non-reentrant model
  1340 ;;
  1341                           
  1342                           
  1343                           ;psect for function ___ftadd
  1344  05F9                     ___ftadd:	
  1345                           
  1346                           ;incstack = 0
  1347                           ; Regs used in ___ftadd: [wreg+status,2+status,0+pclath+cstack]
  1348  05F9  1283               	bcf	3,5	;RP0=0, select bank0
  1349  05FA  0830               	movf	___ftadd@f1,w
  1350  05FB  00B6               	movwf	??___ftadd
  1351  05FC  0831               	movf	___ftadd@f1+1,w
  1352  05FD  00B7               	movwf	??___ftadd+1
  1353  05FE  0832               	movf	___ftadd@f1+2,w
  1354  05FF  00B8               	movwf	??___ftadd+2
  1355  0600  1003               	clrc
  1356  0601  0D37               	rlf	??___ftadd+1,w
  1357  0602  0D38               	rlf	??___ftadd+2,w
  1358  0603  00B9               	movwf	??___ftadd+3
  1359  0604  0839               	movf	??___ftadd+3,w
  1360  0605  00BC               	movwf	___ftadd@exp1
  1361  0606  0833               	movf	___ftadd@f2,w
  1362  0607  00B6               	movwf	??___ftadd
  1363  0608  0834               	movf	___ftadd@f2+1,w
  1364  0609  00B7               	movwf	??___ftadd+1
  1365  060A  0835               	movf	___ftadd@f2+2,w
  1366  060B  00B8               	movwf	??___ftadd+2
  1367  060C  1003               	clrc
  1368  060D  0D37               	rlf	??___ftadd+1,w
  1369  060E  0D38               	rlf	??___ftadd+2,w
  1370  060F  00B9               	movwf	??___ftadd+3
  1371  0610  0839               	movf	??___ftadd+3,w
  1372  0611  00BB               	movwf	___ftadd@exp2
  1373  0612  083C               	movf	___ftadd@exp1,w
  1374  0613  1903               	btfsc	3,2
  1375  0614  2E21               	goto	l959
  1376  0615  083B               	movf	___ftadd@exp2,w
  1377  0616  023C               	subwf	___ftadd@exp1,w
  1378  0617  1803               	skipnc
  1379  0618  2E28               	goto	l963
  1380  0619  033C               	decf	___ftadd@exp1,w
  1381  061A  3AFF               	xorlw	255
  1382  061B  073B               	addwf	___ftadd@exp2,w
  1383  061C  00B6               	movwf	??___ftadd
  1384  061D  3019               	movlw	25
  1385  061E  0236               	subwf	??___ftadd,w
  1386  061F  1C03               	skipc
  1387  0620  2E28               	goto	l963
  1388  0621                     l959:	
  1389  0621  0833               	movf	___ftadd@f2,w
  1390  0622  00B0               	movwf	?___ftadd
  1391  0623  0834               	movf	___ftadd@f2+1,w
  1392  0624  00B1               	movwf	?___ftadd+1
  1393  0625  0835               	movf	___ftadd@f2+2,w
  1394  0626  00B2               	movwf	?___ftadd+2
  1395  0627  0008               	return
  1396  0628                     l963:	
  1397  0628  083B               	movf	___ftadd@exp2,w
  1398  0629  1903               	btfsc	3,2
  1399  062A  0008               	return
  1400  062B  083C               	movf	___ftadd@exp1,w
  1401  062C  023B               	subwf	___ftadd@exp2,w
  1402  062D  1803               	skipnc
  1403  062E  2E37               	goto	l969
  1404  062F  033B               	decf	___ftadd@exp2,w
  1405  0630  3AFF               	xorlw	255
  1406  0631  073C               	addwf	___ftadd@exp1,w
  1407  0632  00B6               	movwf	??___ftadd
  1408  0633  3019               	movlw	25
  1409  0634  0236               	subwf	??___ftadd,w
  1410  0635  1803               	btfsc	3,0
  1411  0636  0008               	return
  1412  0637                     l969:	
  1413  0637  3006               	movlw	6
  1414  0638  00B6               	movwf	??___ftadd
  1415  0639  0836               	movf	??___ftadd,w
  1416  063A  00BA               	movwf	___ftadd@sign
  1417  063B  1BB2               	btfsc	___ftadd@f1+2,7
  1418  063C  17BA               	bsf	___ftadd@sign,7
  1419  063D  1BB5               	btfsc	___ftadd@f2+2,7
  1420  063E  173A               	bsf	___ftadd@sign,6
  1421  063F  17B1               	bsf	___ftadd@f1+1,7
  1422  0640  30FF               	movlw	255
  1423  0641  05B0               	andwf	___ftadd@f1,f
  1424  0642  30FF               	movlw	255
  1425  0643  05B1               	andwf	___ftadd@f1+1,f
  1426  0644  3000               	movlw	0
  1427  0645  05B2               	andwf	___ftadd@f1+2,f
  1428  0646  17B4               	bsf	___ftadd@f2+1,7
  1429  0647  30FF               	movlw	255
  1430  0648  05B3               	andwf	___ftadd@f2,f
  1431  0649  30FF               	movlw	255
  1432  064A  05B4               	andwf	___ftadd@f2+1,f
  1433  064B  3000               	movlw	0
  1434  064C  05B5               	andwf	___ftadd@f2+2,f
  1435  064D  083B               	movf	___ftadd@exp2,w
  1436  064E  023C               	subwf	___ftadd@exp1,w
  1437  064F  1803               	skipnc
  1438  0650  2E77               	goto	l991
  1439  0651                     l981:	
  1440  0651  3001               	movlw	1
  1441  0652                     u1045:	
  1442  0652  1003               	clrc
  1443  0653  0DB3               	rlf	___ftadd@f2,f
  1444  0654  0DB4               	rlf	___ftadd@f2+1,f
  1445  0655  0DB5               	rlf	___ftadd@f2+2,f
  1446  0656  3EFF               	addlw	-1
  1447  0657  1D03               	skipz
  1448  0658  2E52               	goto	u1045
  1449  0659  3001               	movlw	1
  1450  065A  02BB               	subwf	___ftadd@exp2,f
  1451  065B  083B               	movf	___ftadd@exp2,w
  1452  065C  063C               	xorwf	___ftadd@exp1,w
  1453  065D  1903               	skipnz
  1454  065E  2E72               	goto	l989
  1455  065F  3001               	movlw	1
  1456  0660  02BA               	subwf	___ftadd@sign,f
  1457  0661  083A               	movf	___ftadd@sign,w
  1458  0662  3907               	andlw	7
  1459  0663  1903               	btfsc	3,2
  1460  0664  2E72               	goto	l989
  1461  0665  2E51               	goto	l981
  1462  0666                     l987:	
  1463  0666  3001               	movlw	1
  1464  0667                     u1075:	
  1465  0667  1003               	clrc
  1466  0668  0CB2               	rrf	___ftadd@f1+2,f
  1467  0669  0CB1               	rrf	___ftadd@f1+1,f
  1468  066A  0CB0               	rrf	___ftadd@f1,f
  1469  066B  3EFF               	addlw	-1
  1470  066C  1D03               	skipz
  1471  066D  2E67               	goto	u1075
  1472  066E  3001               	movlw	1
  1473  066F  00B6               	movwf	??___ftadd
  1474  0670  0836               	movf	??___ftadd,w
  1475  0671  07BC               	addwf	___ftadd@exp1,f
  1476  0672                     l989:	
  1477  0672  083C               	movf	___ftadd@exp1,w
  1478  0673  063B               	xorwf	___ftadd@exp2,w
  1479  0674  1903               	btfsc	3,2
  1480  0675  2EA0               	goto	l331
  1481  0676  2E66               	goto	l987
  1482  0677                     l991:	
  1483  0677  083C               	movf	___ftadd@exp1,w
  1484  0678  023B               	subwf	___ftadd@exp2,w
  1485  0679  1803               	skipnc
  1486  067A  2EA0               	goto	l331
  1487  067B                     l993:	
  1488  067B  3001               	movlw	1
  1489  067C                     u1105:	
  1490  067C  1003               	clrc
  1491  067D  0DB0               	rlf	___ftadd@f1,f
  1492  067E  0DB1               	rlf	___ftadd@f1+1,f
  1493  067F  0DB2               	rlf	___ftadd@f1+2,f
  1494  0680  3EFF               	addlw	-1
  1495  0681  1D03               	skipz
  1496  0682  2E7C               	goto	u1105
  1497  0683  3001               	movlw	1
  1498  0684  02BC               	subwf	___ftadd@exp1,f
  1499  0685  083B               	movf	___ftadd@exp2,w
  1500  0686  063C               	xorwf	___ftadd@exp1,w
  1501  0687  1903               	skipnz
  1502  0688  2E9C               	goto	l1001
  1503  0689  3001               	movlw	1
  1504  068A  02BA               	subwf	___ftadd@sign,f
  1505  068B  083A               	movf	___ftadd@sign,w
  1506  068C  3907               	andlw	7
  1507  068D  1903               	btfsc	3,2
  1508  068E  2E9C               	goto	l1001
  1509  068F  2E7B               	goto	l993
  1510  0690                     l999:	
  1511  0690  3001               	movlw	1
  1512  0691                     u1135:	
  1513  0691  1003               	clrc
  1514  0692  0CB5               	rrf	___ftadd@f2+2,f
  1515  0693  0CB4               	rrf	___ftadd@f2+1,f
  1516  0694  0CB3               	rrf	___ftadd@f2,f
  1517  0695  3EFF               	addlw	-1
  1518  0696  1D03               	skipz
  1519  0697  2E91               	goto	u1135
  1520  0698  3001               	movlw	1
  1521  0699  00B6               	movwf	??___ftadd
  1522  069A  0836               	movf	??___ftadd,w
  1523  069B  07BB               	addwf	___ftadd@exp2,f
  1524  069C                     l1001:	
  1525  069C  083C               	movf	___ftadd@exp1,w
  1526  069D  063B               	xorwf	___ftadd@exp2,w
  1527  069E  1D03               	skipz
  1528  069F  2E90               	goto	l999
  1529  06A0                     l331:	
  1530  06A0  1FBA               	btfss	___ftadd@sign,7
  1531  06A1  2EB2               	goto	l1005
  1532  06A2  30FF               	movlw	255
  1533  06A3  06B0               	xorwf	___ftadd@f1,f
  1534  06A4  30FF               	movlw	255
  1535  06A5  06B1               	xorwf	___ftadd@f1+1,f
  1536  06A6  30FF               	movlw	255
  1537  06A7  06B2               	xorwf	___ftadd@f1+2,f
  1538  06A8  3001               	movlw	1
  1539  06A9  07B0               	addwf	___ftadd@f1,f
  1540  06AA  3000               	movlw	0
  1541  06AB  1803               	skipnc
  1542  06AC  3001               	movlw	1
  1543  06AD  07B1               	addwf	___ftadd@f1+1,f
  1544  06AE  3000               	movlw	0
  1545  06AF  1803               	skipnc
  1546  06B0  3001               	movlw	1
  1547  06B1  07B2               	addwf	___ftadd@f1+2,f
  1548  06B2                     l1005:	
  1549  06B2  1F3A               	btfss	___ftadd@sign,6
  1550  06B3  2EC4               	goto	l1009
  1551  06B4  30FF               	movlw	255
  1552  06B5  06B3               	xorwf	___ftadd@f2,f
  1553  06B6  30FF               	movlw	255
  1554  06B7  06B4               	xorwf	___ftadd@f2+1,f
  1555  06B8  30FF               	movlw	255
  1556  06B9  06B5               	xorwf	___ftadd@f2+2,f
  1557  06BA  3001               	movlw	1
  1558  06BB  07B3               	addwf	___ftadd@f2,f
  1559  06BC  3000               	movlw	0
  1560  06BD  1803               	skipnc
  1561  06BE  3001               	movlw	1
  1562  06BF  07B4               	addwf	___ftadd@f2+1,f
  1563  06C0  3000               	movlw	0
  1564  06C1  1803               	skipnc
  1565  06C2  3001               	movlw	1
  1566  06C3  07B5               	addwf	___ftadd@f2+2,f
  1567  06C4                     l1009:	
  1568  06C4  01BA               	clrf	___ftadd@sign
  1569  06C5  0830               	movf	___ftadd@f1,w
  1570  06C6  07B3               	addwf	___ftadd@f2,f
  1571  06C7  0831               	movf	___ftadd@f1+1,w
  1572  06C8  1103               	clrz
  1573  06C9  1803               	skipnc
  1574  06CA  0A31               	incf	___ftadd@f1+1,w
  1575  06CB  1D03               	btfss	3,2
  1576  06CC  07B4               	addwf	___ftadd@f2+1,f
  1577  06CD  0832               	movf	___ftadd@f1+2,w
  1578  06CE  1103               	clrz
  1579  06CF  1803               	skipnc
  1580  06D0  0A32               	incf	___ftadd@f1+2,w
  1581  06D1  1D03               	btfss	3,2
  1582  06D2  07B5               	addwf	___ftadd@f2+2,f
  1583  06D3  1FB5               	btfss	___ftadd@f2+2,7
  1584  06D4  2EE7               	goto	l1019
  1585  06D5  30FF               	movlw	255
  1586  06D6  06B3               	xorwf	___ftadd@f2,f
  1587  06D7  30FF               	movlw	255
  1588  06D8  06B4               	xorwf	___ftadd@f2+1,f
  1589  06D9  30FF               	movlw	255
  1590  06DA  06B5               	xorwf	___ftadd@f2+2,f
  1591  06DB  3001               	movlw	1
  1592  06DC  07B3               	addwf	___ftadd@f2,f
  1593  06DD  3000               	movlw	0
  1594  06DE  1803               	skipnc
  1595  06DF  3001               	movlw	1
  1596  06E0  07B4               	addwf	___ftadd@f2+1,f
  1597  06E1  3000               	movlw	0
  1598  06E2  1803               	skipnc
  1599  06E3  3001               	movlw	1
  1600  06E4  07B5               	addwf	___ftadd@f2+2,f
  1601  06E5  01BA               	clrf	___ftadd@sign
  1602  06E6  0ABA               	incf	___ftadd@sign,f
  1603  06E7                     l1019:	
  1604  06E7  0833               	movf	___ftadd@f2,w
  1605  06E8  00F1               	movwf	___ftpack@arg
  1606  06E9  0834               	movf	___ftadd@f2+1,w
  1607  06EA  00F2               	movwf	___ftpack@arg+1
  1608  06EB  0835               	movf	___ftadd@f2+2,w
  1609  06EC  00F3               	movwf	___ftpack@arg+2
  1610  06ED  083C               	movf	___ftadd@exp1,w
  1611  06EE  00B6               	movwf	??___ftadd
  1612  06EF  0836               	movf	??___ftadd,w
  1613  06F0  00F4               	movwf	___ftpack@exp
  1614  06F1  083A               	movf	___ftadd@sign,w
  1615  06F2  00B7               	movwf	??___ftadd+1
  1616  06F3  0837               	movf	??___ftadd+1,w
  1617  06F4  00F5               	movwf	___ftpack@sign
  1618  06F5  237D               	fcall	___ftpack
  1619  06F6  0871               	movf	?___ftpack,w
  1620  06F7  1283               	bcf	3,5	;RP0=0, select bank0
  1621  06F8  00B0               	movwf	?___ftadd
  1622  06F9  0872               	movf	?___ftpack+1,w
  1623  06FA  00B1               	movwf	?___ftadd+1
  1624  06FB  0873               	movf	?___ftpack+2,w
  1625  06FC  00B2               	movwf	?___ftadd+2
  1626  06FD  0008               	return
  1627  06FE                     __end_of___ftadd:	
  1628                           
  1629                           	psect	text6
  1630  02BC                     __ptext6:	
  1631 ;; *************** function ___awtoft *****************
  1632 ;; Defined at:
  1633 ;;		line 32 in file "/Applications/microchip/xc8/v1.41/sources/common/awtoft.c"
  1634 ;; Parameters:    Size  Location     Type
  1635 ;;  c               2    9[COMMON] int 
  1636 ;; Auto vars:     Size  Location     Type
  1637 ;;  sign            1   12[COMMON] unsigned char 
  1638 ;; Return value:  Size  Location     Type
  1639 ;;                  3    9[COMMON] float 
  1640 ;; Registers used:
  1641 ;;		wreg, status,2, status,0, pclath, cstack
  1642 ;; Tracked objects:
  1643 ;;		On entry : 0/0
  1644 ;;		On exit  : 0/0
  1645 ;;		Unchanged: 0/0
  1646 ;; Data sizes:     COMMON   BANK0   BANK1
  1647 ;;      Params:         3       0       0
  1648 ;;      Locals:         1       0       0
  1649 ;;      Temps:          0       2       0
  1650 ;;      Totals:         4       2       0
  1651 ;;Total ram usage:        6 bytes
  1652 ;; Hardware stack levels used:    1
  1653 ;; Hardware stack levels required when called:    1
  1654 ;; This function calls:
  1655 ;;		___ftpack
  1656 ;; This function is called by:
  1657 ;;		_pwmGenerator
  1658 ;; This function uses a non-reentrant model
  1659 ;;
  1660                           
  1661                           
  1662                           ;psect for function ___awtoft
  1663  02BC                     ___awtoft:	
  1664                           
  1665                           ;incstack = 0
  1666                           ; Regs used in ___awtoft: [wreg+status,2+status,0+pclath+cstack]
  1667  02BC  01FD               	clrf	___awtoft@sign
  1668  02BD  1FFB               	btfss	___awtoft@c+1,7
  1669  02BE  2AC6               	goto	l949
  1670  02BF  09FA               	comf	___awtoft@c,f
  1671  02C0  09FB               	comf	___awtoft@c+1,f
  1672  02C1  0AFA               	incf	___awtoft@c,f
  1673  02C2  1903               	skipnz
  1674  02C3  0AFB               	incf	___awtoft@c+1,f
  1675  02C4  01FD               	clrf	___awtoft@sign
  1676  02C5  0AFD               	incf	___awtoft@sign,f
  1677  02C6                     l949:	
  1678  02C6  087A               	movf	___awtoft@c,w
  1679  02C7  00F1               	movwf	___ftpack@arg
  1680  02C8  087B               	movf	___awtoft@c+1,w
  1681  02C9  00F2               	movwf	___ftpack@arg+1
  1682  02CA  01F3               	clrf	___ftpack@arg+2
  1683  02CB  308E               	movlw	142
  1684  02CC  1283               	bcf	3,5	;RP0=0, select bank0
  1685  02CD  00A0               	movwf	??___awtoft
  1686  02CE  0820               	movf	??___awtoft,w
  1687  02CF  00F4               	movwf	___ftpack@exp
  1688  02D0  087D               	movf	___awtoft@sign,w
  1689  02D1  00A1               	movwf	??___awtoft+1
  1690  02D2  0821               	movf	??___awtoft+1,w
  1691  02D3  00F5               	movwf	___ftpack@sign
  1692  02D4  237D               	fcall	___ftpack
  1693  02D5  0871               	movf	?___ftpack,w
  1694  02D6  00FA               	movwf	?___awtoft
  1695  02D7  0872               	movf	?___ftpack+1,w
  1696  02D8  00FB               	movwf	?___awtoft+1
  1697  02D9  0873               	movf	?___ftpack+2,w
  1698  02DA  00FC               	movwf	?___awtoft+2
  1699  02DB  0008               	return
  1700  02DC                     __end_of___awtoft:	
  1701                           
  1702                           	psect	text7
  1703  037D                     __ptext7:	
  1704 ;; *************** function ___ftpack *****************
  1705 ;; Defined at:
  1706 ;;		line 62 in file "/Applications/microchip/xc8/v1.41/sources/common/float.c"
  1707 ;; Parameters:    Size  Location     Type
  1708 ;;  arg             3    0[COMMON] unsigned um
  1709 ;;  exp             1    3[COMMON] unsigned char 
  1710 ;;  sign            1    4[COMMON] unsigned char 
  1711 ;; Auto vars:     Size  Location     Type
  1712 ;;		None
  1713 ;; Return value:  Size  Location     Type
  1714 ;;                  3    0[COMMON] float 
  1715 ;; Registers used:
  1716 ;;		wreg, status,2, status,0
  1717 ;; Tracked objects:
  1718 ;;		On entry : 0/0
  1719 ;;		On exit  : 0/0
  1720 ;;		Unchanged: 0/0
  1721 ;; Data sizes:     COMMON   BANK0   BANK1
  1722 ;;      Params:         5       0       0
  1723 ;;      Locals:         0       0       0
  1724 ;;      Temps:          3       0       0
  1725 ;;      Totals:         8       0       0
  1726 ;;Total ram usage:        8 bytes
  1727 ;; Hardware stack levels used:    1
  1728 ;; This function calls:
  1729 ;;		Nothing
  1730 ;; This function is called by:
  1731 ;;		___awtoft
  1732 ;;		___ftadd
  1733 ;;		___ftdiv
  1734 ;;		___lwtoft
  1735 ;; This function uses a non-reentrant model
  1736 ;;
  1737                           
  1738                           
  1739                           ;psect for function ___ftpack
  1740  037D                     ___ftpack:	
  1741                           
  1742                           ;incstack = 0
  1743                           ; Regs used in ___ftpack: [wreg+status,2+status,0]
  1744  037D  0874               	movf	___ftpack@exp,w
  1745  037E  1903               	btfsc	3,2
  1746  037F  2B85               	goto	l869
  1747  0380  0873               	movf	___ftpack@arg+2,w
  1748  0381  0472               	iorwf	___ftpack@arg+1,w
  1749  0382  0471               	iorwf	___ftpack@arg,w
  1750  0383  1D03               	skipz
  1751  0384  2B98               	goto	l875
  1752  0385                     l869:	
  1753  0385  3000               	movlw	0
  1754  0386  00F1               	movwf	?___ftpack
  1755  0387  3000               	movlw	0
  1756  0388  00F2               	movwf	?___ftpack+1
  1757  0389  3000               	movlw	0
  1758  038A  00F3               	movwf	?___ftpack+2
  1759  038B  0008               	return
  1760  038C                     l873:	
  1761  038C  3001               	movlw	1
  1762  038D  00F6               	movwf	??___ftpack
  1763  038E  0876               	movf	??___ftpack,w
  1764  038F  07F4               	addwf	___ftpack@exp,f
  1765  0390  3001               	movlw	1
  1766  0391                     u745:	
  1767  0391  1003               	clrc
  1768  0392  0CF3               	rrf	___ftpack@arg+2,f
  1769  0393  0CF2               	rrf	___ftpack@arg+1,f
  1770  0394  0CF1               	rrf	___ftpack@arg,f
  1771  0395  3EFF               	addlw	-1
  1772  0396  1D03               	skipz
  1773  0397  2B91               	goto	u745
  1774  0398                     l875:	
  1775  0398  30FE               	movlw	254
  1776  0399  0573               	andwf	___ftpack@arg+2,w
  1777  039A  1903               	btfsc	3,2
  1778  039B  2BB3               	goto	l300
  1779  039C  2B8C               	goto	l873
  1780  039D                     l877:	
  1781  039D  3001               	movlw	1
  1782  039E  00F6               	movwf	??___ftpack
  1783  039F  0876               	movf	??___ftpack,w
  1784  03A0  07F4               	addwf	___ftpack@exp,f
  1785  03A1  3001               	movlw	1
  1786  03A2  07F1               	addwf	___ftpack@arg,f
  1787  03A3  3000               	movlw	0
  1788  03A4  1803               	skipnc
  1789  03A5  3001               	movlw	1
  1790  03A6  07F2               	addwf	___ftpack@arg+1,f
  1791  03A7  3000               	movlw	0
  1792  03A8  1803               	skipnc
  1793  03A9  3001               	movlw	1
  1794  03AA  07F3               	addwf	___ftpack@arg+2,f
  1795  03AB  3001               	movlw	1
  1796  03AC                     u765:	
  1797  03AC  1003               	clrc
  1798  03AD  0CF3               	rrf	___ftpack@arg+2,f
  1799  03AE  0CF2               	rrf	___ftpack@arg+1,f
  1800  03AF  0CF1               	rrf	___ftpack@arg,f
  1801  03B0  3EFF               	addlw	-1
  1802  03B1  1D03               	skipz
  1803  03B2  2BAC               	goto	u765
  1804  03B3                     l300:	
  1805  03B3  30FF               	movlw	255
  1806  03B4  0573               	andwf	___ftpack@arg+2,w
  1807  03B5  1903               	btfsc	3,2
  1808  03B6  2BC2               	goto	l885
  1809  03B7  2B9D               	goto	l877
  1810  03B8                     l883:	
  1811  03B8  3001               	movlw	1
  1812  03B9  02F4               	subwf	___ftpack@exp,f
  1813  03BA  3001               	movlw	1
  1814  03BB                     u785:	
  1815  03BB  1003               	clrc
  1816  03BC  0DF1               	rlf	___ftpack@arg,f
  1817  03BD  0DF2               	rlf	___ftpack@arg+1,f
  1818  03BE  0DF3               	rlf	___ftpack@arg+2,f
  1819  03BF  3EFF               	addlw	-1
  1820  03C0  1D03               	skipz
  1821  03C1  2BBB               	goto	u785
  1822  03C2                     l885:	
  1823  03C2  1BF2               	btfsc	___ftpack@arg+1,7
  1824  03C3  2BC8               	goto	l307
  1825  03C4  3002               	movlw	2
  1826  03C5  0274               	subwf	___ftpack@exp,w
  1827  03C6  1803               	skipnc
  1828  03C7  2BB8               	goto	l883
  1829  03C8                     l307:	
  1830  03C8  1874               	btfsc	___ftpack@exp,0
  1831  03C9  2BD0               	goto	l308
  1832  03CA  30FF               	movlw	255
  1833  03CB  05F1               	andwf	___ftpack@arg,f
  1834  03CC  307F               	movlw	127
  1835  03CD  05F2               	andwf	___ftpack@arg+1,f
  1836  03CE  30FF               	movlw	255
  1837  03CF  05F3               	andwf	___ftpack@arg+2,f
  1838  03D0                     l308:	
  1839  03D0  1003               	clrc
  1840  03D1  0CF4               	rrf	___ftpack@exp,f
  1841  03D2  0874               	movf	___ftpack@exp,w
  1842  03D3  00F6               	movwf	??___ftpack
  1843  03D4  01F7               	clrf	??___ftpack+1
  1844  03D5  01F8               	clrf	??___ftpack+2
  1845  03D6  3010               	movlw	16
  1846  03D7                     u825:	
  1847  03D7  1003               	clrc
  1848  03D8  0DF6               	rlf	??___ftpack,f
  1849  03D9  0DF7               	rlf	??___ftpack+1,f
  1850  03DA  0DF8               	rlf	??___ftpack+2,f
  1851  03DB  3EFF               	addlw	-1
  1852  03DC  1D03               	skipz
  1853  03DD  2BD7               	goto	u825
  1854  03DE  0876               	movf	??___ftpack,w
  1855  03DF  04F1               	iorwf	___ftpack@arg,f
  1856  03E0  0877               	movf	??___ftpack+1,w
  1857  03E1  04F2               	iorwf	___ftpack@arg+1,f
  1858  03E2  0878               	movf	??___ftpack+2,w
  1859  03E3  04F3               	iorwf	___ftpack@arg+2,f
  1860  03E4  0875               	movf	___ftpack@sign,w
  1861  03E5  1903               	btfsc	3,2
  1862  03E6  0008               	return
  1863  03E7  17F3               	bsf	___ftpack@arg+2,7
  1864  03E8  0008               	return
  1865  03E9                     __end_of___ftpack:	
  1866                           
  1867                           	psect	text8
  1868  0324                     __ptext8:	
  1869 ;; *************** function ___awdiv *****************
  1870 ;; Defined at:
  1871 ;;		line 6 in file "/Applications/microchip/xc8/v1.41/sources/common/awdiv.c"
  1872 ;; Parameters:    Size  Location     Type
  1873 ;;  divisor         2    0[COMMON] int 
  1874 ;;  dividend        2    2[COMMON] int 
  1875 ;; Auto vars:     Size  Location     Type
  1876 ;;  quotient        2    7[COMMON] int 
  1877 ;;  sign            1    6[COMMON] unsigned char 
  1878 ;;  counter         1    5[COMMON] unsigned char 
  1879 ;; Return value:  Size  Location     Type
  1880 ;;                  2    0[COMMON] int 
  1881 ;; Registers used:
  1882 ;;		wreg, status,2, status,0
  1883 ;; Tracked objects:
  1884 ;;		On entry : 0/0
  1885 ;;		On exit  : 0/0
  1886 ;;		Unchanged: 0/0
  1887 ;; Data sizes:     COMMON   BANK0   BANK1
  1888 ;;      Params:         4       0       0
  1889 ;;      Locals:         4       0       0
  1890 ;;      Temps:          1       0       0
  1891 ;;      Totals:         9       0       0
  1892 ;;Total ram usage:        9 bytes
  1893 ;; Hardware stack levels used:    1
  1894 ;; This function calls:
  1895 ;;		Nothing
  1896 ;; This function is called by:
  1897 ;;		_pwmGenerator
  1898 ;; This function uses a non-reentrant model
  1899 ;;
  1900                           
  1901                           
  1902                           ;psect for function ___awdiv
  1903  0324                     ___awdiv:	
  1904                           
  1905                           ;incstack = 0
  1906                           ; Regs used in ___awdiv: [wreg+status,2+status,0]
  1907  0324  01F7               	clrf	___awdiv@sign
  1908  0325  1FF2               	btfss	___awdiv@divisor+1,7
  1909  0326  2B2E               	goto	l905
  1910  0327  09F1               	comf	___awdiv@divisor,f
  1911  0328  09F2               	comf	___awdiv@divisor+1,f
  1912  0329  0AF1               	incf	___awdiv@divisor,f
  1913  032A  1903               	skipnz
  1914  032B  0AF2               	incf	___awdiv@divisor+1,f
  1915  032C  01F7               	clrf	___awdiv@sign
  1916  032D  0AF7               	incf	___awdiv@sign,f
  1917  032E                     l905:	
  1918  032E  1FF4               	btfss	___awdiv@dividend+1,7
  1919  032F  2B39               	goto	l911
  1920  0330  09F3               	comf	___awdiv@dividend,f
  1921  0331  09F4               	comf	___awdiv@dividend+1,f
  1922  0332  0AF3               	incf	___awdiv@dividend,f
  1923  0333  1903               	skipnz
  1924  0334  0AF4               	incf	___awdiv@dividend+1,f
  1925  0335  3001               	movlw	1
  1926  0336  00F5               	movwf	??___awdiv
  1927  0337  0875               	movf	??___awdiv,w
  1928  0338  06F7               	xorwf	___awdiv@sign,f
  1929  0339                     l911:	
  1930  0339  01F8               	clrf	___awdiv@quotient
  1931  033A  01F9               	clrf	___awdiv@quotient+1
  1932  033B  0871               	movf	___awdiv@divisor,w
  1933  033C  0472               	iorwf	___awdiv@divisor+1,w
  1934  033D  1903               	btfsc	3,2
  1935  033E  2B70               	goto	l933
  1936  033F  01F6               	clrf	___awdiv@counter
  1937  0340  0AF6               	incf	___awdiv@counter,f
  1938  0341                     l921:	
  1939  0341  1BF2               	btfsc	___awdiv@divisor+1,7
  1940  0342  2B4F               	goto	l923
  1941  0343  3001               	movlw	1
  1942  0344                     u875:	
  1943  0344  1003               	clrc
  1944  0345  0DF1               	rlf	___awdiv@divisor,f
  1945  0346  0DF2               	rlf	___awdiv@divisor+1,f
  1946  0347  3EFF               	addlw	-1
  1947  0348  1D03               	skipz
  1948  0349  2B44               	goto	u875
  1949  034A  3001               	movlw	1
  1950  034B  00F5               	movwf	??___awdiv
  1951  034C  0875               	movf	??___awdiv,w
  1952  034D  07F6               	addwf	___awdiv@counter,f
  1953  034E  2B41               	goto	l921
  1954  034F                     l923:	
  1955  034F  3001               	movlw	1
  1956  0350                     u895:	
  1957  0350  1003               	clrc
  1958  0351  0DF8               	rlf	___awdiv@quotient,f
  1959  0352  0DF9               	rlf	___awdiv@quotient+1,f
  1960  0353  3EFF               	addlw	-1
  1961  0354  1D03               	skipz
  1962  0355  2B50               	goto	u895
  1963  0356  0872               	movf	___awdiv@divisor+1,w
  1964  0357  0274               	subwf	___awdiv@dividend+1,w
  1965  0358  1D03               	skipz
  1966  0359  2B5C               	goto	u905
  1967  035A  0871               	movf	___awdiv@divisor,w
  1968  035B  0273               	subwf	___awdiv@dividend,w
  1969  035C                     u905:	
  1970  035C  1C03               	skipc
  1971  035D  2B65               	goto	l929
  1972  035E  0871               	movf	___awdiv@divisor,w
  1973  035F  02F3               	subwf	___awdiv@dividend,f
  1974  0360  0872               	movf	___awdiv@divisor+1,w
  1975  0361  1C03               	skipc
  1976  0362  03F4               	decf	___awdiv@dividend+1,f
  1977  0363  02F4               	subwf	___awdiv@dividend+1,f
  1978  0364  1478               	bsf	___awdiv@quotient,0
  1979  0365                     l929:	
  1980  0365  3001               	movlw	1
  1981  0366                     u915:	
  1982  0366  1003               	clrc
  1983  0367  0CF2               	rrf	___awdiv@divisor+1,f
  1984  0368  0CF1               	rrf	___awdiv@divisor,f
  1985  0369  3EFF               	addlw	-1
  1986  036A  1D03               	skipz
  1987  036B  2B66               	goto	u915
  1988  036C  3001               	movlw	1
  1989  036D  02F6               	subwf	___awdiv@counter,f
  1990  036E  1D03               	btfss	3,2
  1991  036F  2B4F               	goto	l923
  1992  0370                     l933:	
  1993  0370  0877               	movf	___awdiv@sign,w
  1994  0371  1903               	btfsc	3,2
  1995  0372  2B78               	goto	l937
  1996  0373  09F8               	comf	___awdiv@quotient,f
  1997  0374  09F9               	comf	___awdiv@quotient+1,f
  1998  0375  0AF8               	incf	___awdiv@quotient,f
  1999  0376  1903               	skipnz
  2000  0377  0AF9               	incf	___awdiv@quotient+1,f
  2001  0378                     l937:	
  2002  0378  0879               	movf	___awdiv@quotient+1,w
  2003  0379  00F2               	movwf	?___awdiv+1
  2004  037A  0878               	movf	___awdiv@quotient,w
  2005  037B  00F1               	movwf	?___awdiv
  2006  037C  0008               	return
  2007  037D                     __end_of___awdiv:	
  2008                           
  2009                           	psect	text9
  2010  029B                     __ptext9:	
  2011 ;; *************** function _init *****************
  2012 ;; Defined at:
  2013 ;;		line 55 in file "main.c"
  2014 ;; Parameters:    Size  Location     Type
  2015 ;;		None
  2016 ;; Auto vars:     Size  Location     Type
  2017 ;;		None
  2018 ;; Return value:  Size  Location     Type
  2019 ;;                  1    wreg      void 
  2020 ;; Registers used:
  2021 ;;		wreg, status,2
  2022 ;; Tracked objects:
  2023 ;;		On entry : 0/0
  2024 ;;		On exit  : 0/0
  2025 ;;		Unchanged: 0/0
  2026 ;; Data sizes:     COMMON   BANK0   BANK1
  2027 ;;      Params:         0       0       0
  2028 ;;      Locals:         0       0       0
  2029 ;;      Temps:          0       0       0
  2030 ;;      Totals:         0       0       0
  2031 ;;Total ram usage:        0 bytes
  2032 ;; Hardware stack levels used:    1
  2033 ;; This function calls:
  2034 ;;		Nothing
  2035 ;; This function is called by:
  2036 ;;		_main
  2037 ;; This function uses a non-reentrant model
  2038 ;;
  2039                           
  2040                           
  2041                           ;psect for function _init
  2042  029B                     _init:	
  2043                           
  2044                           ;main.c: 56: OSCCON = 0x70;
  2045                           
  2046                           ;incstack = 0
  2047                           ; Regs used in _init: [wreg+status,2]
  2048  029B  3070               	movlw	112
  2049  029C  1683               	bsf	3,5	;RP0=1, select bank1
  2050  029D  008F               	movwf	15	;volatile
  2051                           
  2052                           ;main.c: 57: GPIO = 0x00;
  2053  029E  1283               	bcf	3,5	;RP0=0, select bank0
  2054  029F  0185               	clrf	5	;volatile
  2055                           
  2056                           ;main.c: 58: ANSEL = 0x00;
  2057  02A0  1683               	bsf	3,5	;RP0=1, select bank1
  2058  02A1  019F               	clrf	31	;volatile
  2059                           
  2060                           ;main.c: 59: TRISIO = 0x00;
  2061  02A2  0185               	clrf	5	;volatile
  2062                           
  2063                           ;main.c: 60: ADCON0 = 0x00;
  2064  02A3  1283               	bcf	3,5	;RP0=0, select bank0
  2065  02A4  019F               	clrf	31	;volatile
  2066                           
  2067                           ;main.c: 61: CMCON0 = 0x7;
  2068  02A5  3007               	movlw	7
  2069  02A6  0099               	movwf	25	;volatile
  2070                           
  2071                           ;main.c: 62: WPU = 0x00;
  2072  02A7  1683               	bsf	3,5	;RP0=1, select bank1
  2073  02A8  0195               	clrf	21	;volatile
  2074  02A9  0008               	return
  2075  02AA                     __end_of_init:	
  2076  007E                     btemp	set	126	;btemp
  2077  007E                     wtemp0	set	126


Data Sizes:
    Strings     0
    Constant    0
    Data        0
    BSS         0
    Persistent  0
    Stack       0

Auto Spaces:
    Space          Size  Autos    Used
    COMMON           13     13      13
    BANK0            69     69      69
    BANK1            32      0       0

Pointer List with Targets:

    None.

Critical Paths under _main in COMMON

    _pwmGenerator->___awtoft
    ___lwtoft->___ftpack
    ___fttol->___lwtoft
    ___ftdiv->___lwtoft
    ___ftadd->___lwtoft
    ___awtoft->___awdiv

Critical Paths under _main in BANK0

    _main->_pwmGenerator
    _pwmGenerator->___fttol
    ___fttol->___ftadd
    ___ftadd->___ftdiv

Critical Paths under _main in BANK1

    None.

Call Graph Tables:

 ---------------------------------------------------------------------------------
 (Depth) Function   	        Calls       Base Space   Used Autos Params    Refs
 ---------------------------------------------------------------------------------
 (0) _main                                                 5     5      0    9801
                                             64 BANK0      5     5      0
                               _init
                       _pwmGenerator
 ---------------------------------------------------------------------------------
 (1) _pwmGenerator                                        21    19      2    9732
                                             43 BANK0     21    19      2
                            ___awdiv
                           ___awtoft
                            ___ftadd
                            ___ftdiv
                            ___fttol
                           ___lwtoft
 ---------------------------------------------------------------------------------
 (2) ___lwtoft                                             4     1      3    1782
                                              8 COMMON     4     1      3
                           ___ftpack
 ---------------------------------------------------------------------------------
 (2) ___fttol                                             14    10      4     305
                                             29 BANK0     14    10      4
                            ___ftadd (ARG)
                            ___ftdiv (ARG)
                           ___lwtoft (ARG)
 ---------------------------------------------------------------------------------
 (2) ___ftdiv                                             16    10      6    2305
                                              0 BANK0     16    10      6
                           ___ftpack
                           ___lwtoft (ARG)
 ---------------------------------------------------------------------------------
 (2) ___ftadd                                             13     7      6    2733
                                             16 BANK0     13     7      6
                            ___ftdiv (ARG)
                           ___ftpack
                           ___lwtoft (ARG)
 ---------------------------------------------------------------------------------
 (2) ___awtoft                                             6     3      3    1851
                                              9 COMMON     4     1      3
                                              0 BANK0      2     2      0
                            ___awdiv (ARG)
                           ___ftpack
 ---------------------------------------------------------------------------------
 (3) ___ftpack                                             8     3      5    1707
                                              0 COMMON     8     3      5
 ---------------------------------------------------------------------------------
 (2) ___awdiv                                              9     5      4     406
                                              0 COMMON     9     5      4
 ---------------------------------------------------------------------------------
 (1) _init                                                 0     0      0       0
 ---------------------------------------------------------------------------------
 Estimated maximum stack depth 3
 ---------------------------------------------------------------------------------

 Call Graph Graphs:

 _main (ROOT)
   _init
   _pwmGenerator
     ___awdiv
     ___awtoft
       ___awdiv (ARG)
       ___ftpack (ARG)
     ___ftadd
       ___ftdiv (ARG)
         ___ftpack
         ___lwtoft (ARG)
           ___ftpack
       ___ftpack (ARG)
       ___lwtoft (ARG)
         ___ftpack
     ___ftdiv
       ___ftpack
       ___lwtoft (ARG)
         ___ftpack
     ___fttol
       ___ftadd (ARG)
         ___ftdiv (ARG)
           ___ftpack
           ___lwtoft (ARG)
             ___ftpack
         ___ftpack (ARG)
         ___lwtoft (ARG)
           ___ftpack
       ___ftdiv (ARG)
         ___ftpack
         ___lwtoft (ARG)
           ___ftpack
       ___lwtoft (ARG)
         ___ftpack
     ___lwtoft
       ___ftpack

 Address spaces:
Name               Size   Autos  Total    Cost      Usage
BITCOMMON            D      0       0       0        0.0%
EEDATA             100      0       0       0        0.0%
NULL                 0      0       0       0        0.0%
CODE                 0      0       0       0        0.0%
COMMON               D      D       D       1      100.0%
BITSFR0              0      0       0       1        0.0%
SFR0                 0      0       0       1        0.0%
BITSFR1              0      0       0       2        0.0%
SFR1                 0      0       0       2        0.0%
STACK                0      0       0       2        0.0%
BITBANK0            45      0       0       3        0.0%
BANK0               45     45      45       4      100.0%
BANK1               20      0       0       5        0.0%
ABS                  0      0       0       6        0.0%
BITBANK1            20      0       0       7        0.0%
DATA                 0      0       0       8        0.0%


Microchip Technology PIC Macro Assembler V1.41 build -162212810 
Symbol Table                                                                                   Sun Mar  5 13:56:03 2017

            __CFG_CP$OFF 0000             ___awdiv@sign 0077             ___ftadd@exp1 003C  
           ___ftadd@exp2 003B             ___ftadd@sign 003A                      l300 03B3  
                    l307 03C8                      l331 06A0                      l308 03D0  
                    l391 045C                      l911 0339                      l921 0341  
                    l905 032E                      l923 034F                      l933 0370  
                    l937 0378                      l929 0365                      l873 038C  
                    l883 03B8                      l875 0398                      l963 0628  
                    l885 03C2                      l877 039D                      l869 0385  
                    l949 02C6                      l981 0651                      l991 0677  
                    l959 0621                      l993 067B                      l969 0637  
                    l987 0666                      l989 0672                      l999 0690  
                    _PR2 0092             __CFG_CPD$OFF 0000                      u905 035C  
                    u825 03D7                      u745 0391                      u915 0366  
                    u765 03AC                      u785 03BB                      u875 0344  
                    u895 0350                      _WPU 0095             ___ftdiv@cntr 002A  
           ___ftdiv@sign 002F                     l1001 069C                     l1005 06B2  
                   l1103 046D                     l1009 06C4                     l1019 06E7  
                   l1035 04A3                     l1029 048D                     l1213 05E9  
                   l1071 0402                     l1057 0507                     l1049 04E8  
                   l1153 05D9                     l1137 055D                     l1091 0444  
                   l1155 05DC                     l1163 05E3                     l1157 05DE  
                   l1165 05F4                     l1149 05D1                     l1159 05E0  
                   l1191 0315                     l1183 02EF                     l1097 0451  
                   l1089 0434                     l1099 045F                     u1105 067C  
                   u1045 0652                     u1135 0691                     u1215 04B5  
                   u1225 04C7                     u1075 0667                     u1235 04E9  
                   u1315 0435                     u1245 04FA                     u1255 0508  
                   u1415 02ED                     u1345 0453                     u1425 0313  
                   u1285 0409                     u1437 02FC                     u1447 031C  
                   _GPIO 0005         pwmGenerator@freq 004B         pwmGenerator@tosc 0059  
                   _main 02DC             ___ftpack@arg 0071                     _init 029B  
           ___ftpack@exp 0074                     btemp 007E                     start 0001  
          __CFG_IESO$OFF 0000             ___fttol@exp1 004A             ___fttol@lval 0046  
                  ?_main 0071                    ?_init 0071          __end_of___awdiv 037D  
        __end_of___ftadd 06FE            __CFG_WDTE$OFF 0000          __end_of___ftdiv 052A  
                  _ANSEL 009F          ___awdiv@divisor 0071          __end_of___fttol 0476  
                  _T2CON 0012          ___awdiv@counter 0076           __CFG_FCMEN$OFF 0000  
          ___awtoft@sign 007D            ___ftpack@sign 0075                    main@i 0063  
         __CFG_BOREN$OFF 0000                    status 0003                    wtemp0 007E  
         __CFG_MCLRE$OFF 0000          __initialization 06FE             __end_of_main 0324  
           __end_of_init 02AA                   ??_main 0060            ___fttol@sign1 0045  
                 ??_init 0071                   _ADCON0 001F                   _CCPR1L 0013  
       ___awdiv@dividend 0073                   _CMCON0 0019         __end_of___awtoft 02DC  
       __end_of___ftpack 03E9         __end_of___lwtoft 02BC                   _OSCCON 008F  
                 _TRISIO 0085           __CFG_PWRTE$OFF 0000       pwmGenerator@period 0050  
              ??___awdiv 0075                ??___ftadd 0036                ??___ftdiv 0026  
              ??___fttol 0041         ___awdiv@quotient 0078  __end_of__initialization 06FE  
             ___ftadd@f1 0030               ___ftadd@f2 0033               ___ftdiv@f1 0023  
             ___ftdiv@f2 0020               ___ftdiv@f3 002B               ___awtoft@c 007A  
             ___fttol@f1 003D           __pcstackCOMMON 0071               ___lwtoft@c 0079  
             __pmaintext 02DC                  _CCP1CON 0015                ?___awtoft 007A  
              ?___ftpack 0071                ?___lwtoft 0079                  ___awdiv 0324  
                ___ftadd 05F9                  ___ftdiv 0476                  ___fttol 03E9  
             ??___awtoft 0020               ??___ftpack 0076                  __ptext1 052A  
                __ptext2 02AA                  __ptext3 03E9                  __ptext4 0476  
                __ptext5 05F9                  __ptext6 02BC                  __ptext7 037D  
                __ptext8 0324                  __ptext9 029B               ??___lwtoft 007C  
       _pwmGenerator$440 0056         _pwmGenerator$439 0053            ?_pwmGenerator 004B  
   end_of_initialization 06FE           ??_pwmGenerator 004D              ___ftdiv@exp 002E  
        pwmGenerator@pr2 005C      start_initialization 06FE        __size_of___awtoft 0020  
      __size_of___ftpack 006C    pwmGenerator@prescalar 004F                ___latbits 0000  
      __size_of___lwtoft 0012            __pcstackBANK0 0020     __end_of_pwmGenerator 05F9  
               ?___awdiv 0071                 ?___ftadd 0030                 ?___ftdiv 0020  
               ?___fttol 003D         __size_of___awdiv 0059         __size_of___ftadd 0105  
       __size_of___ftdiv 00B4         __size_of___fttol 008D                 ___awtoft 02BC  
               ___ftpack 037D                 ___lwtoft 02AA            __size_of_main 0048  
  __size_of_pwmGenerator 00CF            __size_of_init 000F            pwmGenerator@i 005E  
           _pwmGenerator 052A       __CFG_FOSC$INTOSCIO 0000  
